

Microchip Technology PIC18 LITE Macro Assembler V1.37 build -260352376 
                                                                                               Sat Aug 20 13:57:50 2016

Microchip Technology Omniscient Code Generator v1.37 (Free mode) build 201603110536
     1                           	processor	18F45K20
     2                           	fnconf	rparam,??,?,0
     3                           	opt	pw 120
     4                           	opt	lm
     5                           	psect	eeprom_data,global,class=EEDATA,delta=1
     6                           	psect	idataCOMRAM,global,class=CODE,delta=1
     7                           	psect	idataBANK0,global,class=CODE,delta=1
     8                           	psect	idataBANK1,global,class=CODE,delta=1
     9                           	psect	nvBANK0,global,class=BANK0,space=1,delta=1
    10                           	psect	mediumconst,global,reloc=2,class=MEDIUMCONST,delta=1
    11                           	psect	cinit,global,reloc=2,class=CODE,delta=1
    12                           	psect	bssCOMRAM,global,class=COMRAM,space=1,delta=1
    13                           	psect	dataCOMRAM,global,class=COMRAM,space=1,delta=1
    14                           	psect	bssBANK0,global,class=BANK0,space=1,delta=1
    15                           	psect	dataBANK0,global,class=BANK0,space=1,delta=1
    16                           	psect	dataBANK1,global,class=BANK1,space=1,delta=1
    17                           	psect	cstackBANK1,global,class=BANK1,space=1,delta=1
    18                           	psect	cstackBANK0,global,class=BANK0,space=1,delta=1
    19                           	psect	cstackCOMRAM,global,class=COMRAM,space=1,delta=1
    20                           	psect	text0,global,reloc=2,class=CODE,delta=1
    21                           	psect	text1,global,reloc=2,class=CODE,delta=1
    22                           	psect	text2,global,reloc=2,class=CODE,delta=1
    23                           	psect	text3,global,reloc=2,class=CODE,delta=1
    24                           	psect	text4,global,reloc=2,class=CODE,delta=1
    25                           	psect	text5,global,reloc=2,class=CODE,delta=1
    26                           	psect	text6,global,reloc=2,class=CODE,delta=1
    27                           	psect	text7,global,reloc=2,class=CODE,delta=1
    28                           	psect	text8,global,reloc=2,class=CODE,delta=1
    29                           	psect	text9,global,reloc=2,class=CODE,delta=1
    30                           	psect	text10,global,reloc=2,class=CODE,delta=1
    31                           	psect	text11,global,reloc=2,class=CODE,delta=1
    32                           	psect	text12,global,reloc=2,class=CODE,delta=1
    33                           	psect	text13,global,reloc=2,class=CODE,delta=1
    34                           	psect	text14,global,reloc=2,class=CODE,delta=1
    35                           	psect	text15,global,reloc=2,class=CODE,delta=1
    36                           	psect	text16,global,reloc=2,class=CODE,delta=1
    37                           	psect	text17,global,reloc=2,class=CODE,delta=1
    38                           	psect	intcode,global,reloc=2,class=CODE,delta=1
    39                           	psect	text19,global,reloc=2,class=CODE,delta=1
    40                           	psect	intsave_regs,global,class=BIGRAM,space=1,delta=1
    41                           	psect	rparam,global,class=COMRAM,space=1,delta=1
    42                           	psect	temp,global,ovrld,common,class=COMRAM,space=1,delta=1
    43  0000                     
    44                           	psect	eeprom_data
    45  F00000  00 00 00 00 00 00 00 00 	db	0,0,0,0,0,0,0,0	;# 
    46                           
    47                           	psect	idataCOMRAM
    48  001D18                     __pidataCOMRAM:
    49                           	opt stack 0
    50                           
    51                           ;initializer for menu_seconds_to_mmss@F3627
    52  001D18  30                 	db	48
    53  001D19  31                 	db	49
    54  001D1A  32                 	db	50
    55  001D1B  33                 	db	51
    56  001D1C  34                 	db	52
    57  001D1D  35                 	db	53
    58  001D1E  36                 	db	54
    59  001D1F  37                 	db	55
    60  001D20  38                 	db	56
    61  001D21  39                 	db	57
    62                           
    63                           ;initializer for menu_main@F3618
    64  001D22  30                 	db	48
    65  001D23  30                 	db	48
    66  001D24  3A                 	db	58
    67  001D25  30                 	db	48
    68  001D26  30                 	db	48
    69                           
    70                           	psect	idataBANK0
    71  001CAA                     __pidataBANK0:
    72                           	opt stack 0
    73                           
    74                           ;initializer for _c
    75  001CAA  30                 	db	48
    76  001CAB  31                 	db	49
    77  001CAC  32                 	db	50
    78  001CAD  33                 	db	51
    79  001CAE  34                 	db	52
    80  001CAF  35                 	db	53
    81  001CB0  36                 	db	54
    82  001CB1  37                 	db	55
    83  001CB2  38                 	db	56
    84  001CB3  39                 	db	57
    85                           
    86                           ;initializer for main@F3678
    87  001CB4  30                 	db	48
    88  001CB5  31                 	db	49
    89  001CB6  32                 	db	50
    90  001CB7  33                 	db	51
    91  001CB8  34                 	db	52
    92  001CB9  35                 	db	53
    93  001CBA  36                 	db	54
    94  001CBB  37                 	db	55
    95  001CBC  38                 	db	56
    96  001CBD  39                 	db	57
    97                           
    98                           ;initializer for start_routine@F3731
    99  001CBE  31                 	db	49
   100  001CBF  32                 	db	50
   101  001CC0  33                 	db	51
   102  001CC1  34                 	db	52
   103  001CC2  00                 	db	0
   104                           
   105                           ;initializer for start_routine@F3733
   106  001CC3  23                 	db	35
   107  001CC4  23                 	db	35
   108  001CC5  23                 	db	35
   109  001CC6  23                 	db	35
   110                           
   111                           ;initializer for start_routine@F3716
   112  001CC7  30                 	db	48
   113  001CC8  30                 	db	48
   114  001CC9  30                 	db	48
   115                           
   116                           ;initializer for main@F3690
   117  001CCA  20                 	db	32
   118                           
   119                           	psect	idataBANK1
   120  001AD4                     __pidataBANK1:
   121                           	opt stack 0
   122                           
   123                           ;initializer for _i2c_r_reg
   124  001AD4  30                 	db	48
   125  001AD5  00                 	db	0
   126  001AD6  00                 	db	0
   127  001AD7  00                 	db	0
   128  001AD8  00                 	db	0
   129  001AD9  00                 	db	0
   130  001ADA  00                 	db	0
   131  001ADB  00                 	db	0
   132  001ADC  00                 	db	0
   133  001ADD  00                 	db	0
   134  001ADE  00                 	db	0
   135  001ADF  00                 	db	0
   136  001AE0  00                 	db	0
   137  001AE1  00                 	db	0
   138  001AE2  00                 	db	0
   139  001AE3  00                 	db	0
   140  001AE4  00                 	db	0
   141  001AE5  00                 	db	0
   142  001AE6  00                 	db	0
   143  001AE7  00                 	db	0
   144  001AE8  00                 	db	0
   145  001AE9  00                 	db	0
   146  001AEA  00                 	db	0
   147  001AEB  00                 	db	0
   148  001AEC  00                 	db	0
   149  001AED  00                 	db	0
   150  001AEE  00                 	db	0
   151  001AEF  00                 	db	0
   152  001AF0  00                 	db	0
   153  001AF1  00                 	db	0
   154  001AF2  00                 	db	0
   155  001AF3  00                 	db	0
   156                           
   157                           ;initializer for _i2c_w_reg
   158  001AF4  30                 	db	48
   159  001AF5  00                 	db	0
   160  001AF6  00                 	db	0
   161  001AF7  00                 	db	0
   162  001AF8  00                 	db	0
   163  001AF9  00                 	db	0
   164  001AFA  00                 	db	0
   165  001AFB  00                 	db	0
   166  001AFC  00                 	db	0
   167  001AFD  00                 	db	0
   168  001AFE  00                 	db	0
   169  001AFF  00                 	db	0
   170  001B00  00                 	db	0
   171  001B01  00                 	db	0
   172  001B02  00                 	db	0
   173  001B03  00                 	db	0
   174  001B04  00                 	db	0
   175  001B05  00                 	db	0
   176  001B06  00                 	db	0
   177  001B07  00                 	db	0
   178  001B08  00                 	db	0
   179  001B09  00                 	db	0
   180  001B0A  00                 	db	0
   181  001B0B  00                 	db	0
   182  001B0C  00                 	db	0
   183  001B0D  00                 	db	0
   184  001B0E  00                 	db	0
   185  001B0F  00                 	db	0
   186  001B10  00                 	db	0
   187  001B11  00                 	db	0
   188  001B12  00                 	db	0
   189  001B13  00                 	db	0
   190                           
   191                           ;initializer for _hx
   192  001B14  30                 	db	48
   193  001B15  31                 	db	49
   194  001B16  32                 	db	50
   195  001B17  33                 	db	51
   196  001B18  34                 	db	52
   197  001B19  35                 	db	53
   198  001B1A  36                 	db	54
   199  001B1B  37                 	db	55
   200  001B1C  38                 	db	56
   201  001B1D  39                 	db	57
   202  001B1E  41                 	db	65
   203  001B1F  42                 	db	66
   204  001B20  43                 	db	67
   205  001B21  44                 	db	68
   206  001B22  45                 	db	69
   207  001B23  46                 	db	70
   208                           
   209                           	psect	nvBANK0
   210  0000DE                     __pnvBANK0:
   211                           	opt stack 0
   212  0000DE                     _I2C_ADDR:
   213                           	opt stack 0
   214  0000DE                     	ds	1
   215  0000DF                     _Machine_ID:
   216                           	opt stack 0
   217  0000DF                     	ds	1
   218  0000                     _LATC	set	3979
   219  0000                     _LATDbits	set	3980
   220  0000                     _OSCTUNEbits	set	3995
   221  0000                     _PORTBbits	set	3969
   222  0000                     _PORTC	set	3970
   223  0000                     _PORTD	set	3971
   224  0000                     _PORTDbits	set	3971
   225  0000                     _TRISA	set	3986
   226  0000                     _TRISB	set	3987
   227  0000                     _TRISC	set	3988
   228  0000                     _TRISD	set	3989
   229  0000                     _EEADR	set	4009
   230  0000                     _EECON1bits	set	4006
   231  0000                     _EECON2	set	4007
   232  0000                     _EEDATA	set	4008
   233  0000                     _OSCCON	set	4051
   234  0000                     _PIE1bits	set	3997
   235  0000                     _PIR1bits	set	3998
   236  0000                     _PIR2bits	set	4001
   237  0000                     _SSPADD	set	4040
   238  0000                     _SSPBUF	set	4041
   239  0000                     _SSPCON1	set	4038
   240  0000                     _SSPCON1bits	set	4038
   241  0000                     _SSPCON2	set	4037
   242  0000                     _SSPSTAT	set	4039
   243  0000                     _SSPSTATbits	set	4039
   244  0000                     _INTCONbits	set	4082
   245                           
   246                           	psect	mediumconst
   247  007B7C                     __pmediumconst:
   248                           	opt stack 0
   249  007B7C  00                 	db	0
   250  007B7D                     STR_2:
   251  007B7D  20                 	db	32
   252  007B7E  20                 	db	32
   253  007B7F  20                 	db	32
   254  007B80  20                 	db	32
   255  007B81  20                 	db	32
   256  007B82  20                 	db	32
   257  007B83  20                 	db	32
   258  007B84  20                 	db	32
   259  007B85  20                 	db	32
   260  007B86  20                 	db	32
   261  007B87  20                 	db	32
   262  007B88  20                 	db	32
   263  007B89  20                 	db	32
   264  007B8A  20                 	db	32
   265  007B8B  20                 	db	32
   266  007B8C  20                 	db	32
   267  007B8D  00                 	db	0
   268  007B8E                     STR_4:
   269  007B8E  5B                 	db	91	;'['
   270  007B8F  20                 	db	32
   271  007B90  5D                 	db	93	;']'
   272  007B91  20                 	db	32
   273  007B92  20                 	db	32
   274  007B93  20                 	db	32
   275  007B94  20                 	db	32
   276  007B95  20                 	db	32
   277  007B96  20                 	db	32
   278  007B97  20                 	db	32
   279  007B98  20                 	db	32
   280  007B99  20                 	db	32
   281  007B9A  20                 	db	32
   282  007B9B  20                 	db	32
   283  007B9C  20                 	db	32
   284  007B9D  20                 	db	32
   285  007B9E  00                 	db	0
   286  007B9F                     STR_27:
   287  007B9F  43                 	db	67	;'C'
   288  007BA0  6F                 	db	111	;'o'
   289  007BA1  72                 	db	114	;'r'
   290  007BA2  72                 	db	114	;'r'
   291  007BA3  65                 	db	101	;'e'
   292  007BA4  63                 	db	99	;'c'
   293  007BA5  74                 	db	116	;'t'
   294  007BA6  20                 	db	32
   295  007BA7  20                 	db	32
   296  007BA8  20                 	db	32
   297  007BA9  20                 	db	32
   298  007BAA  20                 	db	32
   299  007BAB  20                 	db	32
   300  007BAC  20                 	db	32
   301  007BAD  20                 	db	32
   302  007BAE  20                 	db	32
   303  007BAF  00                 	db	0
   304  007BB0                     STR_29:
   305  007BB0  49                 	db	73	;'I'
   306  007BB1  6E                 	db	110	;'n'
   307  007BB2  63                 	db	99	;'c'
   308  007BB3  6F                 	db	111	;'o'
   309  007BB4  72                 	db	114	;'r'
   310  007BB5  72                 	db	114	;'r'
   311  007BB6  65                 	db	101	;'e'
   312  007BB7  63                 	db	99	;'c'
   313  007BB8  74                 	db	116	;'t'
   314  007BB9  20                 	db	32
   315  007BBA  20                 	db	32
   316  007BBB  20                 	db	32
   317  007BBC  20                 	db	32
   318  007BBD  20                 	db	32
   319  007BBE  20                 	db	32
   320  007BBF  20                 	db	32
   321  007BC0  00                 	db	0
   322  007BC1                     STR_10:
   323  007BC1  20                 	db	32
   324  007BC2  20                 	db	32
   325  007BC3  20                 	db	32
   326  007BC4  5B                 	db	91	;'['
   327  007BC5  20                 	db	32
   328  007BC6  41                 	db	65	;'A'
   329  007BC7  64                 	db	100	;'d'
   330  007BC8  69                 	db	105	;'i'
   331  007BC9  74                 	db	116	;'t'
   332  007BCA  75                 	db	117	;'u'
   333  007BCB  6D                 	db	109	;'m'
   334  007BCC  20                 	db	32
   335  007BCD  5D                 	db	93	;']'
   336  007BCE  20                 	db	32
   337  007BCF  20                 	db	32
   338  007BD0  20                 	db	32
   339  007BD1  00                 	db	0
   340  007BD2                     STR_8:
   341  007BD2  20                 	db	32
   342  007BD3  20                 	db	32
   343  007BD4  20                 	db	32
   344  007BD5  20                 	db	32
   345  007BD6  5B                 	db	91	;'['
   346  007BD7  20                 	db	32
   347  007BD8  52                 	db	82	;'R'
   348  007BD9  65                 	db	101	;'e'
   349  007BDA  74                 	db	116	;'t'
   350  007BDB  72                 	db	114	;'r'
   351  007BDC  79                 	db	121	;'y'
   352  007BDD  20                 	db	32
   353  007BDE  5D                 	db	93	;']'
   354  007BDF  20                 	db	32
   355  007BE0  20                 	db	32
   356  007BE1  20                 	db	32
   357  007BE2  00                 	db	0
   358  007BE3                     STR_23:
   359  007BE3  4F                 	db	79	;'O'
   360  007BE4  75                 	db	117	;'u'
   361  007BE5  74                 	db	116	;'t'
   362  007BE6  20                 	db	32
   363  007BE7  6F                 	db	111	;'o'
   364  007BE8  66                 	db	102	;'f'
   365  007BE9  20                 	db	32
   366  007BEA  62                 	db	98	;'b'
   367  007BEB  6F                 	db	111	;'o'
   368  007BEC  75                 	db	117	;'u'
   369  007BED  6E                 	db	110	;'n'
   370  007BEE  64                 	db	100	;'d'
   371  007BEF  73                 	db	115	;'s'
   372  007BF0  21                 	db	33
   373  007BF1  20                 	db	32
   374  007BF2  20                 	db	32
   375  007BF3  00                 	db	0
   376  007BF4                     STR_3:
   377  007BF4  45                 	db	69	;'E'
   378  007BF5  6E                 	db	110	;'n'
   379  007BF6  74                 	db	116	;'t'
   380  007BF7  65                 	db	101	;'e'
   381  007BF8  72                 	db	114	;'r'
   382  007BF9  20                 	db	32
   383  007BFA  79                 	db	121	;'y'
   384  007BFB  6F                 	db	111	;'o'
   385  007BFC  75                 	db	117	;'u'
   386  007BFD  72                 	db	114	;'r'
   387  007BFE  20                 	db	32
   388  007BFF  49                 	db	73	;'I'
   389  007C00  44                 	db	68	;'D'
   390  007C01  3A                 	db	58	;':'
   391  007C02  20                 	db	32
   392  007C03  20                 	db	32
   393  007C04  00                 	db	0
   394  007C05                     STR_14:
   395  007C05  20                 	db	32
   396  007C06  20                 	db	32
   397  007C07  5B                 	db	91	;'['
   398  007C08  20                 	db	32
   399  007C09  20                 	db	32
   400  007C0A  41                 	db	65	;'A'
   401  007C0B  64                 	db	100	;'d'
   402  007C0C  69                 	db	105	;'i'
   403  007C0D  74                 	db	116	;'t'
   404  007C0E  75                 	db	117	;'u'
   405  007C0F  6D                 	db	109	;'m'
   406  007C10  20                 	db	32
   407  007C11  20                 	db	32
   408  007C12  5D                 	db	93	;']'
   409  007C13  20                 	db	32
   410  007C14  20                 	db	32
   411  007C15  00                 	db	0
   412  007C16                     STR_16:
   413  007C16  4E                 	db	78	;'N'
   414  007C17  65                 	db	101	;'e'
   415  007C18  77                 	db	119	;'w'
   416  007C19  20                 	db	32
   417  007C1A  4D                 	db	77	;'M'
   418  007C1B  61                 	db	97	;'a'
   419  007C1C  63                 	db	99	;'c'
   420  007C1D  68                 	db	104	;'h'
   421  007C1E  69                 	db	105	;'i'
   422  007C1F  6E                 	db	110	;'n'
   423  007C20  65                 	db	101	;'e'
   424  007C21  20                 	db	32
   425  007C22  49                 	db	73	;'I'
   426  007C23  44                 	db	68	;'D'
   427  007C24  3A                 	db	58	;':'
   428  007C25  20                 	db	32
   429  007C26  00                 	db	0
   430  007C27                     STR_5:
   431  007C27  45                 	db	69	;'E'
   432  007C28  6E                 	db	110	;'n'
   433  007C29  74                 	db	116	;'t'
   434  007C2A  65                 	db	101	;'e'
   435  007C2B  72                 	db	114	;'r'
   436  007C2C  20                 	db	32
   437  007C2D  79                 	db	121	;'y'
   438  007C2E  6F                 	db	111	;'o'
   439  007C2F  75                 	db	117	;'u'
   440  007C30  72                 	db	114	;'r'
   441  007C31  20                 	db	32
   442  007C32  50                 	db	80	;'P'
   443  007C33  49                 	db	73	;'I'
   444  007C34  4E                 	db	78	;'N'
   445  007C35  3A                 	db	58	;':'
   446  007C36  20                 	db	32
   447  007C37  00                 	db	0
   448  007C38                     STR_26:
   449  007C38  45                 	db	69	;'E'
   450  007C39  6E                 	db	110	;'n'
   451  007C3A  74                 	db	116	;'t'
   452  007C3B  65                 	db	101	;'e'
   453  007C3C  72                 	db	114	;'r'
   454  007C3D  20                 	db	32
   455  007C3E  70                 	db	112	;'p'
   456  007C3F  61                 	db	97	;'a'
   457  007C40  73                 	db	115	;'s'
   458  007C41  73                 	db	115	;'s'
   459  007C42  77                 	db	119	;'w'
   460  007C43  6F                 	db	111	;'o'
   461  007C44  72                 	db	114	;'r'
   462  007C45  64                 	db	100	;'d'
   463  007C46  3A                 	db	58	;':'
   464  007C47  20                 	db	32
   465  007C48  00                 	db	0
   466  007C49                     STR_22:
   467  007C49  4D                 	db	77	;'M'
   468  007C4A  61                 	db	97	;'a'
   469  007C4B  79                 	db	121	;'y'
   470  007C4C  20                 	db	32
   471  007C4D  6E                 	db	110	;'n'
   472  007C4E  6F                 	db	111	;'o'
   473  007C4F  74                 	db	116	;'t'
   474  007C50  20                 	db	32
   475  007C51  62                 	db	98	;'b'
   476  007C52  65                 	db	101	;'e'
   477  007C53  20                 	db	32
   478  007C54  7A                 	db	122	;'z'
   479  007C55  65                 	db	101	;'e'
   480  007C56  72                 	db	114	;'r'
   481  007C57  6F                 	db	111	;'o'
   482  007C58  21                 	db	33
   483  007C59  00                 	db	0
   484  007C5A                     STR_15:
   485  007C5A  4C                 	db	76	;'L'
   486  007C5B  6F                 	db	111	;'o'
   487  007C5C  61                 	db	97	;'a'
   488  007C5D  64                 	db	100	;'d'
   489  007C5E  20                 	db	32
   490  007C5F  49                 	db	73	;'I'
   491  007C60  32                 	db	50	;'2'
   492  007C61  43                 	db	67	;'C'
   493  007C62  20                 	db	32
   494  007C63  73                 	db	115	;'s'
   495  007C64  65                 	db	101	;'e'
   496  007C65  74                 	db	116	;'t'
   497  007C66  75                 	db	117	;'u'
   498  007C67  70                 	db	112	;'p'
   499  007C68  2E                 	db	46
   500  007C69  2E                 	db	46
   501  007C6A  00                 	db	0
   502  007C6B                     STR_21:
   503  007C6B  49                 	db	73	;'I'
   504  007C6C  32                 	db	50	;'2'
   505  007C6D  43                 	db	67	;'C'
   506  007C6E  5F                 	db	95	;'_'
   507  007C6F  41                 	db	65	;'A'
   508  007C70  44                 	db	68	;'D'
   509  007C71  44                 	db	68	;'D'
   510  007C72  52                 	db	82	;'R'
   511  007C73  3E                 	db	62	;'>'
   512  007C74  3E                 	db	62	;'>'
   513  007C75  45                 	db	69	;'E'
   514  007C76  45                 	db	69	;'E'
   515  007C77  50                 	db	80	;'P'
   516  007C78  52                 	db	82	;'R'
   517  007C79  4F                 	db	79	;'O'
   518  007C7A  4D                 	db	77	;'M'
   519  007C7B  00                 	db	0
   520  007C7C                     STR_30:
   521  007C7C  41                 	db	65	;'A'
   522  007C7D  63                 	db	99	;'c'
   523  007C7E  63                 	db	99	;'c'
   524  007C7F  65                 	db	101	;'e'
   525  007C80  73                 	db	115	;'s'
   526  007C81  73                 	db	115	;'s'
   527  007C82  20                 	db	32
   528  007C83  44                 	db	68	;'D'
   529  007C84  65                 	db	101	;'e'
   530  007C85  6E                 	db	110	;'n'
   531  007C86  69                 	db	105	;'i'
   532  007C87  65                 	db	101	;'e'
   533  007C88  64                 	db	100	;'d'
   534  007C89  20                 	db	32
   535  007C8A  20                 	db	32
   536  007C8B  58                 	db	88	;'X'
   537  007C8C  00                 	db	0
   538  007C8D                     STR_17:
   539  007C8D  20                 	db	32
   540  007C8E  20                 	db	32
   541  007C8F  20                 	db	32
   542  007C90  20                 	db	32
   543  007C91  20                 	db	32
   544  007C92  20                 	db	32
   545  007C93  20                 	db	32
   546  007C94  5B                 	db	91	;'['
   547  007C95  30                 	db	48	;'0'
   548  007C96  30                 	db	48	;'0'
   549  007C97  31                 	db	49	;'1'
   550  007C98  2D                 	db	45
   551  007C99  31                 	db	49	;'1'
   552  007C9A  30                 	db	48	;'0'
   553  007C9B  30                 	db	48	;'0'
   554  007C9C  5D                 	db	93	;']'
   555  007C9D  00                 	db	0
   556  007C9E                     STR_7:
   557  007C9E  5B                 	db	91	;'['
   558  007C9F  41                 	db	65	;'A'
   559  007CA0  63                 	db	99	;'c'
   560  007CA1  63                 	db	99	;'c'
   561  007CA2  65                 	db	101	;'e'
   562  007CA3  73                 	db	115	;'s'
   563  007CA4  73                 	db	115	;'s'
   564  007CA5  20                 	db	32
   565  007CA6  20                 	db	32
   566  007CA7  44                 	db	68	;'D'
   567  007CA8  65                 	db	101	;'e'
   568  007CA9  6E                 	db	110	;'n'
   569  007CAA  69                 	db	105	;'i'
   570  007CAB  65                 	db	101	;'e'
   571  007CAC  64                 	db	100	;'d'
   572  007CAD  5D                 	db	93	;']'
   573  007CAE  00                 	db	0
   574  007CAF                     STR_24:
   575  007CAF  49                 	db	73	;'I'
   576  007CB0  32                 	db	50	;'2'
   577  007CB1  43                 	db	67	;'C'
   578  007CB2  20                 	db	32
   579  007CB3  64                 	db	100	;'d'
   580  007CB4  69                 	db	105	;'i'
   581  007CB5  73                 	db	115	;'s'
   582  007CB6  63                 	db	99	;'c'
   583  007CB7  6F                 	db	111	;'o'
   584  007CB8  6E                 	db	110	;'n'
   585  007CB9  6E                 	db	110	;'n'
   586  007CBA  65                 	db	101	;'e'
   587  007CBB  63                 	db	99	;'c'
   588  007CBC  74                 	db	116	;'t'
   589  007CBD  65                 	db	101	;'e'
   590  007CBE  64                 	db	100	;'d'
   591  007CBF  00                 	db	0
   592  007CC0                     STR_25:
   593  007CC0  5B                 	db	91	;'['
   594  007CC1  20                 	db	32
   595  007CC2  2A                 	db	42
   596  007CC3  20                 	db	32
   597  007CC4  5D                 	db	93	;']'
   598  007CC5  20                 	db	32
   599  007CC6  20                 	db	32
   600  007CC7  74                 	db	116	;'t'
   601  007CC8  6F                 	db	111	;'o'
   602  007CC9  20                 	db	32
   603  007CCA  62                 	db	98	;'b'
   604  007CCB  79                 	db	121	;'y'
   605  007CCC  70                 	db	112	;'p'
   606  007CCD  61                 	db	97	;'a'
   607  007CCE  73                 	db	115	;'s'
   608  007CCF  73                 	db	115	;'s'
   609  007CD0  00                 	db	0
   610  007CD1                     STR_28:
   611  007CD1  41                 	db	65	;'A'
   612  007CD2  63                 	db	99	;'c'
   613  007CD3  63                 	db	99	;'c'
   614  007CD4  65                 	db	101	;'e'
   615  007CD5  73                 	db	115	;'s'
   616  007CD6  73                 	db	115	;'s'
   617  007CD7  20                 	db	32
   618  007CD8  47                 	db	71	;'G'
   619  007CD9  72                 	db	114	;'r'
   620  007CDA  61                 	db	97	;'a'
   621  007CDB  6E                 	db	110	;'n'
   622  007CDC  74                 	db	116	;'t'
   623  007CDD  65                 	db	101	;'e'
   624  007CDE  64                 	db	100	;'d'
   625  007CDF  20                 	db	32
   626  007CE0  00                 	db	0
   627  007CE1                     STR_13:
   628  007CE1  44                 	db	68	;'D'
   629  007CE2  65                 	db	101	;'e'
   630  007CE3  76                 	db	118	;'v'
   631  007CE4  69                 	db	105	;'i'
   632  007CE5  63                 	db	99	;'c'
   633  007CE6  65                 	db	101	;'e'
   634  007CE7  20                 	db	32
   635  007CE8  49                 	db	73	;'I'
   636  007CE9  44                 	db	68	;'D'
   637  007CEA  20                 	db	32
   638  007CEB  00                 	db	0
   639  007CEC                     STR_12:
   640  007CEC  31                 	db	49	;'1'
   641  007CED  2E                 	db	46
   642  007CEE  30                 	db	48	;'0'
   643  007CEF  2E                 	db	46
   644  007CF0  30                 	db	48	;'0'
   645  007CF1  00                 	db	0
   646  007CF2                     STR_11:
   647  007CF2  52                 	db	82	;'R'
   648  007CF3  65                 	db	101	;'e'
   649  007CF4  76                 	db	118	;'v'
   650  007CF5  20                 	db	32
   651  007CF6  00                 	db	0
   652  007CF7                     STR_19:
   653  007CF7  5B                 	db	91	;'['
   654  007CF8  4F                 	db	79	;'O'
   655  007CF9  4B                 	db	75	;'K'
   656  007CFA  5D                 	db	93	;']'
   657  007CFB  00                 	db	0
   658  007CFC                     STR_20:
   659  007CFC  78                 	db	120	;'x'
   660  007CFD  00                 	db	0
   661  0000                     
   662                           ; #config settings
   663  007CFE  00                 	db	0	; dummy byte at the end
   664  0000                     
   665                           	psect	cinit
   666  00191A                     __pcinit:
   667                           	opt stack 0
   668  00191A                     start_initialization:
   669                           	opt stack 0
   670  00191A                     __initialization:
   671                           	opt stack 0
   672                           
   673                           ; Clear objects allocated to BANK0 (20 bytes)
   674  00191A  EE00  F0CA         	lfsr	0,__pbssBANK0
   675  00191E  0E14               	movlw	20
   676  001920                     clear_0:
   677  001920  6AEE               	clrf	postinc0,c
   678  001922  06E8               	decf	wreg,f,c
   679  001924  E1FD               	bnz	clear_0
   680                           
   681                           ; Clear objects allocated to COMRAM (2 bytes)
   682  001926  6A3F               	clrf	(__pbssCOMRAM+1)& (0+255),c
   683  001928  6A3E               	clrf	__pbssCOMRAM& (0+255),c
   684                           
   685                           ; Initialize objects allocated to BANK1 (80 bytes)
   686                           ; load TBLPTR registers with __pidataBANK1
   687  00192A  0ED4               	movlw	low __pidataBANK1
   688  00192C  6EF6               	movwf	tblptrl,c
   689  00192E  0E1A               	movlw	high __pidataBANK1
   690  001930  6EF7               	movwf	tblptrh,c
   691  001932  0E00               	movlw	low (__pidataBANK1 shr (0+16))
   692  001934  6EF8               	movwf	tblptru,c
   693  001936  EE01  F000         	lfsr	0,__pdataBANK1
   694  00193A  EE10 F050          	lfsr	1,80
   695  00193E                     copy_data0:
   696  00193E  0009               	tblrd		*+
   697  001940  CFF5 FFEE          	movff	tablat,postinc0
   698  001944  50E5               	movf	postdec1,w,c
   699  001946  50E1               	movf	fsr1l,w,c
   700  001948  E1FA               	bnz	copy_data0
   701                           
   702                           ; Initialize objects allocated to BANK0 (33 bytes)
   703                           ; load TBLPTR registers with __pidataBANK0
   704  00194A  0EAA               	movlw	low __pidataBANK0
   705  00194C  6EF6               	movwf	tblptrl,c
   706  00194E  0E1C               	movlw	high __pidataBANK0
   707  001950  6EF7               	movwf	tblptrh,c
   708  001952  0E00               	movlw	low (__pidataBANK0 shr (0+16))
   709  001954  6EF8               	movwf	tblptru,c
   710  001956  EE00  F0A9         	lfsr	0,__pdataBANK0
   711  00195A  EE10 F021          	lfsr	1,33
   712  00195E                     copy_data1:
   713  00195E  0009               	tblrd		*+
   714  001960  CFF5 FFEE          	movff	tablat,postinc0
   715  001964  50E5               	movf	postdec1,w,c
   716  001966  50E1               	movf	fsr1l,w,c
   717  001968  E1FA               	bnz	copy_data1
   718                           
   719                           ; Initialize objects allocated to COMRAM (15 bytes)
   720                           ; load TBLPTR registers with __pidataCOMRAM
   721  00196A  0E18               	movlw	low __pidataCOMRAM
   722  00196C  6EF6               	movwf	tblptrl,c
   723  00196E  0E1D               	movlw	high __pidataCOMRAM
   724  001970  6EF7               	movwf	tblptrh,c
   725  001972  0E00               	movlw	low (__pidataCOMRAM shr (0+16))
   726  001974  6EF8               	movwf	tblptru,c
   727  001976  EE00  F02F         	lfsr	0,__pdataCOMRAM
   728  00197A  EE10 F00F          	lfsr	1,15
   729  00197E                     copy_data2:
   730  00197E  0009               	tblrd		*+
   731  001980  CFF5 FFEE          	movff	tablat,postinc0
   732  001984  50E5               	movf	postdec1,w,c
   733  001986  50E1               	movf	fsr1l,w,c
   734  001988  E1FA               	bnz	copy_data2
   735  00198A                     end_of_initialization:
   736                           	opt stack 0
   737  00198A                     __end_of__initialization:
   738                           	opt stack 0
   739  00198A  9040               	bcf	int$flags,0,c	;clear compiler interrupt flag (level 1)
   740  00198C  9240               	bcf	int$flags,1,c	;clear compiler interrupt flag (level 2)
   741  00198E  0E00               	movlw	low (__Lmediumconst shr (0+16))
   742  001990  6EF8               	movwf	tblptru,c
   743  001992  0100               	movlb	0
   744  001994  EF83  F000         	goto	_main	;jump to C main() function
   745                           tblptru	equ	0xFF8
   746                           tblptrh	equ	0xFF7
   747                           tblptrl	equ	0xFF6
   748                           tablat	equ	0xFF5
   749                           postinc0	equ	0xFEE
   750                           wreg	equ	0xFE8
   751                           postdec1	equ	0xFE5
   752                           fsr1l	equ	0xFE1
   753                           
   754                           	psect	bssCOMRAM
   755  00003E                     __pbssCOMRAM:
   756                           	opt stack 0
   757  00003E                     _i2c_byte_count:
   758                           	opt stack 0
   759  00003E                     	ds	1
   760  00003F                     _i2c_reg_addr:
   761                           	opt stack 0
   762  00003F                     	ds	1
   763                           tblptru	equ	0xFF8
   764                           tblptrh	equ	0xFF7
   765                           tblptrl	equ	0xFF6
   766                           tablat	equ	0xFF5
   767                           postinc0	equ	0xFEE
   768                           wreg	equ	0xFE8
   769                           postdec1	equ	0xFE5
   770                           fsr1l	equ	0xFE1
   771                           
   772                           	psect	dataCOMRAM
   773  00002F                     __pdataCOMRAM:
   774                           	opt stack 0
   775  00002F                     menu_seconds_to_mmss@F3627:
   776                           	opt stack 0
   777  00002F                     	ds	10
   778  000039                     menu_main@F3618:
   779                           	opt stack 0
   780  000039                     	ds	5
   781                           tblptru	equ	0xFF8
   782                           tblptrh	equ	0xFF7
   783                           tblptrl	equ	0xFF6
   784                           tablat	equ	0xFF5
   785                           postinc0	equ	0xFEE
   786                           wreg	equ	0xFE8
   787                           postdec1	equ	0xFE5
   788                           fsr1l	equ	0xFE1
   789                           
   790                           	psect	bssBANK0
   791  0000CA                     __pbssBANK0:
   792                           	opt stack 0
   793  0000CA                     _current_pin:
   794                           	opt stack 0
   795  0000CA                     	ds	9
   796  0000D3                     _current_user:
   797                           	opt stack 0
   798  0000D3                     	ds	9
   799  0000DC                     _EEP_I2C_ADDR:
   800                           	opt stack 0
   801  0000DC                     	ds	1
   802  0000DD                     _credentials_accepted:
   803                           	opt stack 0
   804  0000DD                     	ds	1
   805                           tblptru	equ	0xFF8
   806                           tblptrh	equ	0xFF7
   807                           tblptrl	equ	0xFF6
   808                           tablat	equ	0xFF5
   809                           postinc0	equ	0xFEE
   810                           wreg	equ	0xFE8
   811                           postdec1	equ	0xFE5
   812                           fsr1l	equ	0xFE1
   813                           
   814                           	psect	dataBANK0
   815  0000A9                     __pdataBANK0:
   816                           	opt stack 0
   817  0000A9                     _c:
   818                           	opt stack 0
   819  0000A9                     	ds	10
   820  0000B3                     main@F3678:
   821                           	opt stack 0
   822  0000B3                     	ds	10
   823  0000BD                     start_routine@F3731:
   824                           	opt stack 0
   825  0000BD                     	ds	5
   826  0000C2                     start_routine@F3733:
   827                           	opt stack 0
   828  0000C2                     	ds	4
   829  0000C6                     start_routine@F3716:
   830                           	opt stack 0
   831  0000C6                     	ds	3
   832  0000C9                     main@F3690:
   833                           	opt stack 0
   834  0000C9                     	ds	1
   835                           tblptru	equ	0xFF8
   836                           tblptrh	equ	0xFF7
   837                           tblptrl	equ	0xFF6
   838                           tablat	equ	0xFF5
   839                           postinc0	equ	0xFEE
   840                           wreg	equ	0xFE8
   841                           postdec1	equ	0xFE5
   842                           fsr1l	equ	0xFE1
   843                           
   844                           	psect	dataBANK1
   845  000100                     __pdataBANK1:
   846                           	opt stack 0
   847  000100                     _i2c_r_reg:
   848                           	opt stack 0
   849  000100                     	ds	32
   850  000120                     _i2c_w_reg:
   851                           	opt stack 0
   852  000120                     	ds	32
   853  000140                     _hx:
   854                           	opt stack 0
   855  000140                     	ds	16
   856                           tblptru	equ	0xFF8
   857                           tblptrh	equ	0xFF7
   858                           tblptrl	equ	0xFF6
   859                           tablat	equ	0xFF5
   860                           postinc0	equ	0xFEE
   861                           wreg	equ	0xFE8
   862                           postdec1	equ	0xFE5
   863                           fsr1l	equ	0xFE1
   864                           
   865                           	psect	cstackBANK1
   866  000150                     __pcstackBANK1:
   867                           	opt stack 0
   868  000150                     main@c:
   869                           	opt stack 0
   870                           
   871                           ; 10 bytes @ 0x0
   872  000150                     	ds	10
   873  00015A                     main@buffer:
   874                           	opt stack 0
   875                           
   876                           ; 9 bytes @ 0xA
   877  00015A                     	ds	9
   878  000163                     main@i_781:
   879                           	opt stack 0
   880                           
   881                           ; 2 bytes @ 0x13
   882  000163                     	ds	2
   883  000165                     main@n_c:
   884                           	opt stack 0
   885                           
   886                           ; 1 bytes @ 0x15
   887  000165                     	ds	1
   888  000166                     main@i_765:
   889                           	opt stack 0
   890                           
   891                           ; 2 bytes @ 0x16
   892  000166                     	ds	2
   893  000168                     main@i_777:
   894                           	opt stack 0
   895                           
   896                           ; 2 bytes @ 0x18
   897  000168                     	ds	2
   898  00016A                     main@is_leading_zero:
   899                           	opt stack 0
   900                           
   901                           ; 1 bytes @ 0x1A
   902  00016A                     	ds	1
   903  00016B                     main@a:
   904                           	opt stack 0
   905                           
   906                           ; 1 bytes @ 0x1B
   907  00016B                     	ds	1
   908  00016C                     main@i_772:
   909                           	opt stack 0
   910                           
   911                           ; 2 bytes @ 0x1C
   912  00016C                     	ds	2
   913  00016E                     main@i_766:
   914                           	opt stack 0
   915                           
   916                           ; 2 bytes @ 0x1E
   917  00016E                     	ds	2
   918  000170                     main@i_780:
   919                           	opt stack 0
   920                           
   921                           ; 2 bytes @ 0x20
   922  000170                     	ds	2
   923  000172                     main@i:
   924                           	opt stack 0
   925                           
   926                           ; 2 bytes @ 0x22
   927  000172                     	ds	2
   928  000174                     main@i_773:
   929                           	opt stack 0
   930                           
   931                           ; 2 bytes @ 0x24
   932  000174                     	ds	2
   933  000176                     main@i_774:
   934                           	opt stack 0
   935                           
   936                           ; 2 bytes @ 0x26
   937  000176                     	ds	2
   938  000178                     main@i_785:
   939                           	opt stack 0
   940                           
   941                           ; 2 bytes @ 0x28
   942  000178                     	ds	2
   943  00017A                     main@digits:
   944                           	opt stack 0
   945                           
   946                           ; 1 bytes @ 0x2A
   947  00017A                     	ds	1
   948  00017B                     main@p:
   949                           	opt stack 0
   950                           
   951                           ; 1 bytes @ 0x2B
   952  00017B                     	ds	1
   953  00017C                     main@n:
   954                           	opt stack 0
   955                           
   956                           ; 1 bytes @ 0x2C
   957  00017C                     	ds	1
   958  00017D                     main@x:
   959                           	opt stack 0
   960                           
   961                           ; 1 bytes @ 0x2D
   962  00017D                     	ds	1
   963                           tblptru	equ	0xFF8
   964                           tblptrh	equ	0xFF7
   965                           tblptrl	equ	0xFF6
   966                           tablat	equ	0xFF5
   967                           postinc0	equ	0xFEE
   968                           wreg	equ	0xFE8
   969                           postdec1	equ	0xFE5
   970                           fsr1l	equ	0xFE1
   971                           
   972                           	psect	cstackBANK0
   973  000060                     __pcstackBANK0:
   974                           	opt stack 0
   975  000060                     menu_progress_bar@d:
   976                           	opt stack 0
   977                           
   978                           ; 4 bytes @ 0x0
   979  000060                     	ds	4
   980  000064                     menu_progress_bar@ii:
   981                           	opt stack 0
   982                           
   983                           ; 2 bytes @ 0x4
   984  000064                     	ds	2
   985  000066                     menu_progress_bar@i:
   986                           	opt stack 0
   987                           
   988                           ; 2 bytes @ 0x6
   989  000066                     	ds	2
   990  000068                     menu_progress_bar@i_719:
   991                           	opt stack 0
   992                           
   993                           ; 2 bytes @ 0x8
   994  000068                     	ds	2
   995  00006A                     menu_progress_bar@i_720:
   996                           	opt stack 0
   997                           
   998                           ; 2 bytes @ 0xA
   999  00006A                     	ds	2
  1000  00006C                     menu_progress_bar@i_721:
  1001                           	opt stack 0
  1002                           
  1003                           ; 2 bytes @ 0xC
  1004  00006C                     	ds	2
  1005  00006E                     start_routine@r_password:
  1006                           	opt stack 0
  1007                           
  1008                           ; 5 bytes @ 0xE
  1009  00006E                     	ds	5
  1010  000073                     start_routine@h:
  1011                           	opt stack 0
  1012                           
  1013                           ; 1 bytes @ 0x13
  1014  000073                     	ds	1
  1015  000074                     start_routine@l:
  1016                           	opt stack 0
  1017                           
  1018                           ; 1 bytes @ 0x14
  1019  000074                     	ds	1
  1020  000075                     start_routine@password:
  1021                           	opt stack 0
  1022                           
  1023                           ; 4 bytes @ 0x15
  1024  000075                     	ds	4
  1025  000079                     start_routine@error_msg:
  1026                           	opt stack 0
  1027                           
  1028                           ; 2 bytes @ 0x19
  1029  000079                     	ds	2
  1030  00007B                     start_routine@d1:
  1031                           	opt stack 0
  1032                           
  1033                           ; 1 bytes @ 0x1B
  1034  00007B                     	ds	1
  1035  00007C                     start_routine@k:
  1036                           	opt stack 0
  1037                           
  1038                           ; 1 bytes @ 0x1C
  1039  00007C                     	ds	1
  1040  00007D                     start_routine@v:
  1041                           	opt stack 0
  1042                           
  1043                           ; 1 bytes @ 0x1D
  1044  00007D                     	ds	1
  1045  00007E                     start_routine@i:
  1046                           	opt stack 0
  1047                           
  1048                           ; 2 bytes @ 0x1E
  1049  00007E                     	ds	2
  1050  000080                     start_routine@i_864:
  1051                           	opt stack 0
  1052                           
  1053                           ; 2 bytes @ 0x20
  1054  000080                     	ds	2
  1055  000082                     start_routine@i_872:
  1056                           	opt stack 0
  1057                           
  1058                           ; 2 bytes @ 0x22
  1059  000082                     	ds	2
  1060  000084                     start_routine@i_890:
  1061                           	opt stack 0
  1062                           
  1063                           ; 2 bytes @ 0x24
  1064  000084                     	ds	2
  1065  000086                     start_routine@i_893:
  1066                           	opt stack 0
  1067                           
  1068                           ; 2 bytes @ 0x26
  1069  000086                     	ds	2
  1070  000088                     start_routine@i_896:
  1071                           	opt stack 0
  1072                           
  1073                           ; 2 bytes @ 0x28
  1074  000088                     	ds	2
  1075  00008A                     start_routine@i_912:
  1076                           	opt stack 0
  1077                           
  1078                           ; 2 bytes @ 0x2A
  1079  00008A                     	ds	2
  1080  00008C                     start_routine@b:
  1081                           	opt stack 0
  1082                           
  1083                           ; 3 bytes @ 0x2C
  1084  00008C                     	ds	3
  1085  00008F                     start_routine@n_905:
  1086                           	opt stack 0
  1087                           
  1088                           ; 1 bytes @ 0x2F
  1089  00008F                     	ds	1
  1090  000090                     start_routine@i_887:
  1091                           	opt stack 0
  1092                           
  1093                           ; 2 bytes @ 0x30
  1094  000090                     	ds	2
  1095  000092                     start_routine@i_897:
  1096                           	opt stack 0
  1097                           
  1098                           ; 2 bytes @ 0x32
  1099  000092                     	ds	2
  1100  000094                     start_routine@I2C_new_ADDR:
  1101                           	opt stack 0
  1102                           
  1103                           ; 3 bytes @ 0x34
  1104  000094                     	ds	3
  1105  000097                     start_routine@a:
  1106                           	opt stack 0
  1107                           
  1108                           ; 1 bytes @ 0x37
  1109  000097                     	ds	1
  1110  000098                     start_routine@dt:
  1111                           	opt stack 0
  1112                           
  1113                           ; 1 bytes @ 0x38
  1114  000098                     	ds	1
  1115  000099                     start_routine@i_884:
  1116                           	opt stack 0
  1117                           
  1118                           ; 2 bytes @ 0x39
  1119  000099                     	ds	2
  1120  00009B                     start_routine@dh:
  1121                           	opt stack 0
  1122                           
  1123                           ; 1 bytes @ 0x3B
  1124  00009B                     	ds	1
  1125  00009C                     start_routine@x_900:
  1126                           	opt stack 0
  1127                           
  1128                           ; 1 bytes @ 0x3C
  1129  00009C                     	ds	1
  1130  00009D                     start_routine@x:
  1131                           	opt stack 0
  1132                           
  1133                           ; 1 bytes @ 0x3D
  1134  00009D                     	ds	1
  1135  00009E                     start_routine@n:
  1136                           	opt stack 0
  1137                           
  1138                           ; 1 bytes @ 0x3E
  1139  00009E                     	ds	1
  1140  00009F                     start_routine@new_I2C_address:
  1141                           	opt stack 0
  1142                           
  1143                           ; 1 bytes @ 0x3F
  1144  00009F                     	ds	1
  1145  0000A0                     ??_main:
  1146                           
  1147                           ; 1 bytes @ 0x40
  1148  0000A0                     	ds	9
  1149                           tblptru	equ	0xFF8
  1150                           tblptrh	equ	0xFF7
  1151                           tblptrl	equ	0xFF6
  1152                           tablat	equ	0xFF5
  1153                           postinc0	equ	0xFEE
  1154                           wreg	equ	0xFE8
  1155                           postdec1	equ	0xFE5
  1156                           fsr1l	equ	0xFE1
  1157                           
  1158                           	psect	cstackCOMRAM
  1159  000001                     __pcstackCOMRAM:
  1160                           	opt stack 0
  1161  000001                     ??_load_reg_map:
  1162  000001                     
  1163                           ; 1 bytes @ 0x0
  1164  000001                     	ds	4
  1165  000005                     load_reg_map@i:
  1166                           	opt stack 0
  1167                           
  1168                           ; 2 bytes @ 0x4
  1169  000005                     	ds	2
  1170  000007                     load_reg_map@i_829:
  1171                           	opt stack 0
  1172                           
  1173                           ; 2 bytes @ 0x6
  1174  000007                     	ds	2
  1175  000009                     ??_ISR:
  1176                           
  1177                           ; 1 bytes @ 0x8
  1178  000009                     	ds	14
  1179  000017                     ISR@sspBuf:
  1180                           	opt stack 0
  1181                           
  1182                           ; 1 bytes @ 0x16
  1183  000017                     	ds	1
  1184  000018                     ?___awdiv:
  1185                           	opt stack 0
  1186  000018                     ?___lwdiv:
  1187                           	opt stack 0
  1188  000018                     Lcd_Port@a:
  1189                           	opt stack 0
  1190  000018                     Eeprom_Read_Byte@address:
  1191                           	opt stack 0
  1192  000018                     Eeprom_Write_Byte@data:
  1193                           	opt stack 0
  1194  000018                     latch_keypad@x:
  1195                           	opt stack 0
  1196  000018                     ___awdiv@dividend:
  1197                           	opt stack 0
  1198  000018                     ___lwdiv@dividend:
  1199                           	opt stack 0
  1200                           
  1201                           ; 2 bytes @ 0x17
  1202  000018                     	ds	1
  1203  000019                     Lcd_Cmd@a:
  1204                           	opt stack 0
  1205  000019                     Lcd_Write_Char@temp:
  1206                           	opt stack 0
  1207  000019                     Eeprom_Write_Byte@address:
  1208                           	opt stack 0
  1209                           
  1210                           ; 1 bytes @ 0x18
  1211  000019                     	ds	1
  1212  00001A                     ??_latch_keypad:
  1213  00001A                     ??_Lcd_Clear:
  1214  00001A                     ??_Lcd_Init:
  1215  00001A                     Lcd_Set_Cursor@b:
  1216                           	opt stack 0
  1217  00001A                     Lcd_Write_Char@y:
  1218                           	opt stack 0
  1219  00001A                     ___awdiv@divisor:
  1220                           	opt stack 0
  1221  00001A                     ___lwdiv@divisor:
  1222                           	opt stack 0
  1223                           
  1224                           ; 2 bytes @ 0x19
  1225  00001A                     	ds	1
  1226  00001B                     Lcd_Set_Cursor@a:
  1227                           	opt stack 0
  1228  00001B                     Lcd_Write_Char@a:
  1229                           	opt stack 0
  1230                           
  1231                           ; 1 bytes @ 0x1A
  1232  00001B                     	ds	1
  1233  00001C                     Lcd_Set_Cursor@z:
  1234                           	opt stack 0
  1235  00001C                     ___awdiv@counter:
  1236                           	opt stack 0
  1237  00001C                     ___lwdiv@counter:
  1238                           	opt stack 0
  1239  00001C                     Lcd_Write_String@a:
  1240                           	opt stack 0
  1241                           
  1242                           ; 2 bytes @ 0x1B
  1243  00001C                     	ds	1
  1244  00001D                     Lcd_Set_Cursor@y:
  1245                           	opt stack 0
  1246  00001D                     ___awdiv@sign:
  1247                           	opt stack 0
  1248  00001D                     ___lwdiv@quotient:
  1249                           	opt stack 0
  1250                           
  1251                           ; 2 bytes @ 0x1C
  1252  00001D                     	ds	1
  1253  00001E                     ??_Lcd_Write_String:
  1254  00001E                     Lcd_Set_Cursor@temp:
  1255                           	opt stack 0
  1256  00001E                     ___awdiv@quotient:
  1257                           	opt stack 0
  1258                           
  1259                           ; 2 bytes @ 0x1D
  1260  00001E                     	ds	1
  1261  00001F                     ?___wmul:
  1262                           	opt stack 0
  1263  00001F                     ___wmul@multiplier:
  1264                           	opt stack 0
  1265                           
  1266                           ; 2 bytes @ 0x1E
  1267  00001F                     	ds	1
  1268  000020                     Lcd_Write_String@i:
  1269                           	opt stack 0
  1270                           
  1271                           ; 2 bytes @ 0x1F
  1272  000020                     	ds	1
  1273  000021                     ___wmul@multiplicand:
  1274                           	opt stack 0
  1275                           
  1276                           ; 2 bytes @ 0x20
  1277  000021                     	ds	2
  1278  000023                     ___wmul@product:
  1279                           	opt stack 0
  1280                           
  1281                           ; 2 bytes @ 0x22
  1282  000023                     	ds	2
  1283  000025                     menu_progress_bar@load_time_ms:
  1284                           	opt stack 0
  1285                           
  1286                           ; 2 bytes @ 0x24
  1287  000025                     	ds	2
  1288  000027                     ??_menu_progress_bar:
  1289                           
  1290                           ; 1 bytes @ 0x26
  1291  000027                     	ds	4
  1292  00002B                     ??_start_routine:
  1293                           
  1294                           ; 1 bytes @ 0x2A
  1295  00002B                     	ds	4
  1296                           tblptru	equ	0xFF8
  1297                           tblptrh	equ	0xFF7
  1298                           tblptrl	equ	0xFF6
  1299                           tablat	equ	0xFF5
  1300                           postinc0	equ	0xFEE
  1301                           wreg	equ	0xFE8
  1302                           postdec1	equ	0xFE5
  1303                           fsr1l	equ	0xFE1
  1304                           
  1305 ;;
  1306 ;;Main: autosize = 0, tempsize = 9, incstack = 0, save=0
  1307 ;;
  1308 ;; *************** function _main *****************
  1309 ;; Defined at:
  1310 ;;		line 45 in file "main.c"
  1311 ;; Parameters:    Size  Location     Type
  1312 ;;		None
  1313 ;; Auto vars:     Size  Location     Type
  1314 ;;  i               2   24[BANK1 ] int 
  1315 ;;  i               2   38[BANK1 ] int 
  1316 ;;  i               2   36[BANK1 ] int 
  1317 ;;  i               2   28[BANK1 ] int 
  1318 ;;  c              10    0[BANK1 ] unsigned char [10]
  1319 ;;  i               2   30[BANK1 ] int 
  1320 ;;  i               2   22[BANK1 ] int 
  1321 ;;  i               2   34[BANK1 ] int 
  1322 ;;  i               2   40[BANK1 ] int 
  1323 ;;  i               2   19[BANK1 ] int 
  1324 ;;  i               2   32[BANK1 ] int 
  1325 ;;  buffer          9   10[BANK1 ] unsigned char [9]
  1326 ;;  digits          1   42[BANK1 ] unsigned char 
  1327 ;;  a               1   27[BANK1 ] unsigned char 
  1328 ;;  is_leading_z    1   26[BANK1 ] unsigned char 
  1329 ;;  n_c             1   21[BANK1 ] unsigned char 
  1330 ;;  x               1   45[BANK1 ] unsigned char 
  1331 ;;  n               1   44[BANK1 ] unsigned char 
  1332 ;;  p               1   43[BANK1 ] unsigned char 
  1333 ;; Return value:  Size  Location     Type
  1334 ;;                  1    wreg      void 
  1335 ;; Registers used:
  1336 ;;		wreg, fsr0l, fsr0h, fsr1l, fsr1h, fsr2l, fsr2h, status,2, status,0, tblptrl, tblptrh, tblptru, prodl, prodh, cstack
  1337 ;; Tracked objects:
  1338 ;;		On entry : 0/0
  1339 ;;		On exit  : 0/0
  1340 ;;		Unchanged: 0/0
  1341 ;; Data sizes:     COMRAM   BANK0   BANK1   BANK2   BANK3   BANK4   BANK5
  1342 ;;      Params:         0       0       0       0       0       0       0
  1343 ;;      Locals:         0       0      46       0       0       0       0
  1344 ;;      Temps:          0       9       0       0       0       0       0
  1345 ;;      Totals:         0       9      46       0       0       0       0
  1346 ;;Total ram usage:       55 bytes
  1347 ;; Hardware stack levels required when called:    7
  1348 ;; This function calls:
  1349 ;;		_Lcd_Clear
  1350 ;;		_Lcd_Init
  1351 ;;		_Lcd_Set_Cursor
  1352 ;;		_Lcd_Write_Char
  1353 ;;		_Lcd_Write_String
  1354 ;;		___awdiv
  1355 ;;		_latch_keypad
  1356 ;;		_mcu_initialise
  1357 ;;		_menu_progress_bar
  1358 ;;		_read_keypad
  1359 ;;		_start_routine
  1360 ;; This function is called by:
  1361 ;;		Startup code after reset
  1362 ;; This function uses a non-reentrant model
  1363 ;;
  1364                           
  1365                           	psect	text0
  1366  000106                     __ptext0:
  1367                           	opt stack 0
  1368  000106                     _main:
  1369                           	opt stack 24
  1370                           
  1371                           ;main.c: 49: unsigned char n = 0, p = 0;
  1372                           
  1373                           ;incstack = 0
  1374  000106  0E00               	movlw	0
  1375  000108  0101               	movlb	1	; () banked
  1376  00010A  6F7C               	movwf	main@n& (0+255),b
  1377  00010C  0E00               	movlw	0
  1378  00010E  0101               	movlb	1	; () banked
  1379  000110  6F7B               	movwf	main@p& (0+255),b
  1380                           
  1381                           ;main.c: 50: unsigned char x = '_';
  1382  000112  0E5F               	movlw	95
  1383  000114  0101               	movlb	1	; () banked
  1384  000116  6F7D               	movwf	main@x& (0+255),b
  1385                           
  1386                           ; BSR set to: 1
  1387                           ;main.c: 53: mcu_initialise();
  1388  000118  ECBA  F00D         	call	_mcu_initialise	;wreg free
  1389                           
  1390                           ;main.c: 54: Lcd_Init();
  1391  00011C  ECCC  F00C         	call	_Lcd_Init	;wreg free
  1392                           
  1393                           ;main.c: 58: start_routine();
  1394  000120  ECCB  F005         	call	_start_routine	;wreg free
  1395                           
  1396                           ;main.c: 62: {
  1397                           ;main.c: 63: while (credentials_accepted == 0 )
  1398                           
  1399                           ;main.c: 61: while (1)
  1400  000124  EFB8  F004         	goto	l4523
  1401  000128                     l4301:
  1402                           
  1403                           ;main.c: 64: {
  1404                           ;main.c: 65: unsigned char buffer[9];
  1405                           ;main.c: 66: for (int i = 0; i < 9; i++)
  1406  000128  0E00               	movlw	0
  1407  00012A  0101               	movlb	1	; () banked
  1408  00012C  6F73               	movwf	(main@i+1)& (0+255),b
  1409  00012E  0E00               	movlw	0
  1410  000130  6F72               	movwf	main@i& (0+255),b
  1411  000132                     l4303:
  1412                           
  1413                           ; BSR set to: 1
  1414  000132  0101               	movlb	1	; () banked
  1415  000134  BF73               	btfsc	(main@i+1)& (0+255),7,b
  1416  000136  D008               	goto	l4307
  1417  000138  0101               	movlb	1	; () banked
  1418  00013A  5173               	movf	(main@i+1)& (0+255),w,b
  1419  00013C  E127               	bnz	l4313
  1420  00013E  0E09               	movlw	9
  1421  000140  0101               	movlb	1	; () banked
  1422  000142  5D72               	subwf	main@i& (0+255),w,b
  1423  000144  B0D8               	btfsc	status,0,c
  1424  000146  D022               	goto	l4313
  1425  000148                     l4307:
  1426                           
  1427                           ; BSR set to: 1
  1428                           ;main.c: 67: {
  1429                           ;main.c: 68: current_user[i] = '0';
  1430  000148  0ED3               	movlw	low _current_user
  1431  00014A  0101               	movlb	1	; () banked
  1432  00014C  2572               	addwf	main@i& (0+255),w,b
  1433  00014E  6ED9               	movwf	fsr2l,c
  1434  000150  0E00               	movlw	high _current_user
  1435  000152  0101               	movlb	1	; () banked
  1436  000154  2173               	addwfc	(main@i+1)& (0+255),w,b
  1437  000156  6EDA               	movwf	fsr2h,c
  1438  000158  0E30               	movlw	48
  1439  00015A  6EDF               	movwf	indf2,c
  1440                           
  1441                           ;main.c: 69: current_pin[i] = '0';
  1442  00015C  0ECA               	movlw	low _current_pin
  1443  00015E  0101               	movlb	1	; () banked
  1444  000160  2572               	addwf	main@i& (0+255),w,b
  1445  000162  6ED9               	movwf	fsr2l,c
  1446  000164  0E00               	movlw	high _current_pin
  1447  000166  0101               	movlb	1	; () banked
  1448  000168  2173               	addwfc	(main@i+1)& (0+255),w,b
  1449  00016A  6EDA               	movwf	fsr2h,c
  1450  00016C  0E30               	movlw	48
  1451  00016E  6EDF               	movwf	indf2,c
  1452                           
  1453                           ;main.c: 70: buffer[i] = '0';
  1454  000170  0E5A               	movlw	low main@buffer
  1455  000172  0101               	movlb	1	; () banked
  1456  000174  2572               	addwf	main@i& (0+255),w,b
  1457  000176  6ED9               	movwf	fsr2l,c
  1458  000178  0E01               	movlw	high main@buffer
  1459  00017A  0101               	movlb	1	; () banked
  1460  00017C  2173               	addwfc	(main@i+1)& (0+255),w,b
  1461  00017E  6EDA               	movwf	fsr2h,c
  1462  000180  0E30               	movlw	48
  1463  000182  6EDF               	movwf	indf2,c
  1464                           
  1465                           ; BSR set to: 1
  1466  000184  0101               	movlb	1	; () banked
  1467  000186  4B72               	infsnz	main@i& (0+255),f,b
  1468  000188  2B73               	incf	(main@i+1)& (0+255),f,b
  1469  00018A  D7D3               	goto	l4303
  1470  00018C                     l4313:
  1471                           
  1472                           ; BSR set to: 1
  1473                           ;main.c: 71: }
  1474                           ;main.c: 72: n = 0;
  1475  00018C  0E00               	movlw	0
  1476  00018E  0101               	movlb	1	; () banked
  1477  000190  6F7C               	movwf	main@n& (0+255),b
  1478                           
  1479                           ; BSR set to: 1
  1480                           ;main.c: 73: Lcd_Set_Cursor(1,1);
  1481  000192  0E01               	movlw	1
  1482  000194  6E1A               	movwf	Lcd_Set_Cursor@b,c
  1483  000196  0E01               	movlw	1
  1484  000198  EC92  F00D         	call	_Lcd_Set_Cursor
  1485                           
  1486                           ;main.c: 74: Lcd_Write_String("Enter your ID:  ");
  1487  00019C  0EF4               	movlw	low STR_3
  1488  00019E  6E1C               	movwf	Lcd_Write_String@a,c
  1489  0001A0  0E7B               	movlw	high STR_3
  1490  0001A2  6E1D               	movwf	Lcd_Write_String@a+1,c
  1491  0001A4  EC08  F00D         	call	_Lcd_Write_String	;wreg free
  1492                           
  1493                           ;main.c: 75: Lcd_Set_Cursor(2,1);
  1494  0001A8  0E01               	movlw	1
  1495  0001AA  6E1A               	movwf	Lcd_Set_Cursor@b,c
  1496  0001AC  0E02               	movlw	2
  1497  0001AE  EC92  F00D         	call	_Lcd_Set_Cursor
  1498                           
  1499                           ;main.c: 76: Lcd_Write_String("[ ]             ");
  1500  0001B2  0E8E               	movlw	low STR_4
  1501  0001B4  6E1C               	movwf	Lcd_Write_String@a,c
  1502  0001B6  0E7B               	movlw	high STR_4
  1503  0001B8  6E1D               	movwf	Lcd_Write_String@a+1,c
  1504  0001BA  EC08  F00D         	call	_Lcd_Write_String	;wreg free
  1505                           
  1506                           ;main.c: 77: Lcd_Set_Cursor(2,1);
  1507  0001BE  0E01               	movlw	1
  1508  0001C0  6E1A               	movwf	Lcd_Set_Cursor@b,c
  1509  0001C2  0E02               	movlw	2
  1510  0001C4  EC92  F00D         	call	_Lcd_Set_Cursor
  1511                           
  1512                           ;main.c: 79: while (n < 10)
  1513  0001C8  D0D0               	goto	l4375
  1514  0001CA                     l4325:
  1515                           
  1516                           ;main.c: 80: {
  1517                           ;main.c: 81: if (n == 9)
  1518  0001CA  0E09               	movlw	9
  1519  0001CC  0101               	movlb	1	; () banked
  1520  0001CE  197C               	xorwf	main@n& (0+255),w,b
  1521  0001D0  B4D8               	btfsc	status,2,c
  1522  0001D2  D0CF               	goto	l4377
  1523                           
  1524                           ; BSR set to: 1
  1525                           ;main.c: 83: Lcd_Set_Cursor(2,2);
  1526                           
  1527                           ; BSR set to: 1
  1528                           
  1529                           ; BSR set to: 1
  1530                           ;main.c: 82: break;
  1531  0001D4  0E02               	movlw	2
  1532  0001D6  6E1A               	movwf	Lcd_Set_Cursor@b,c
  1533  0001D8  0E02               	movlw	2
  1534  0001DA  EC92  F00D         	call	_Lcd_Set_Cursor
  1535                           
  1536                           ;main.c: 84: Lcd_Write_Char(c[9-n]);
  1537  0001DE  0101               	movlb	1	; () banked
  1538  0001E0  517C               	movf	main@n& (0+255),w,b
  1539  0001E2  0100               	movlb	0	; () banked
  1540  0001E4  6FA0               	movwf	??_main& (0+255),b
  1541  0001E6  6BA1               	clrf	(??_main+1)& (0+255),b
  1542  0001E8  0100               	movlb	0	; () banked
  1543  0001EA  1FA0               	comf	??_main& (0+255),f,b
  1544  0001EC  1FA1               	comf	(??_main+1)& (0+255),f,b
  1545  0001EE  4BA0               	infsnz	??_main& (0+255),f,b
  1546  0001F0  2BA1               	incf	(??_main+1)& (0+255),f,b
  1547  0001F2  0E09               	movlw	9
  1548  0001F4  0100               	movlb	0	; () banked
  1549  0001F6  27A0               	addwf	??_main& (0+255),f,b
  1550  0001F8  0E00               	movlw	0
  1551  0001FA  23A1               	addwfc	(??_main+1)& (0+255),f,b
  1552  0001FC  0EA9               	movlw	low _c
  1553  0001FE  0100               	movlb	0	; () banked
  1554  000200  25A0               	addwf	??_main& (0+255),w,b
  1555  000202  6ED9               	movwf	fsr2l,c
  1556  000204  0E00               	movlw	high _c
  1557  000206  0100               	movlb	0	; () banked
  1558  000208  21A1               	addwfc	(??_main+1)& (0+255),w,b
  1559  00020A  6EDA               	movwf	fsr2h,c
  1560  00020C  50DF               	movf	indf2,w,c
  1561  00020E  ECE2  F00D         	call	_Lcd_Write_Char
  1562                           
  1563                           ;main.c: 85: x = read_keypad();
  1564  000212  ECA2  F00B         	call	_read_keypad	;wreg free
  1565  000216  0101               	movlb	1	; () banked
  1566  000218  6F7D               	movwf	main@x& (0+255),b
  1567                           
  1568                           ; BSR set to: 1
  1569                           ;main.c: 86: if (x != '_')
  1570  00021A  0E5F               	movlw	95
  1571  00021C  0101               	movlb	1	; () banked
  1572  00021E  197D               	xorwf	main@x& (0+255),w,b
  1573  000220  B4D8               	btfsc	status,2,c
  1574  000222  D0A3               	goto	l4375
  1575                           
  1576                           ; BSR set to: 1
  1577                           ;main.c: 87: {
  1578                           ;main.c: 88: if (((x - '#') == 0)&&(n > 0))
  1579  000224  0EDD               	movlw	221
  1580  000226  0100               	movlb	0	; () banked
  1581  000228  6FA0               	movwf	??_main& (0+255),b
  1582  00022A  0EFF               	movlw	255
  1583  00022C  0100               	movlb	0	; () banked
  1584  00022E  6FA1               	movwf	(??_main+1)& (0+255),b
  1585  000230  0101               	movlb	1	; () banked
  1586  000232  517D               	movf	main@x& (0+255),w,b
  1587  000234  0100               	movlb	0	; () banked
  1588  000236  6FA2               	movwf	(??_main+2)& (0+255),b
  1589  000238  6BA3               	clrf	(??_main+3)& (0+255),b
  1590  00023A  0100               	movlb	0	; () banked
  1591  00023C  51A0               	movf	??_main& (0+255),w,b
  1592  00023E  0100               	movlb	0	; () banked
  1593  000240  27A2               	addwf	(??_main+2)& (0+255),f,b
  1594  000242  0100               	movlb	0	; () banked
  1595  000244  51A1               	movf	(??_main+1)& (0+255),w,b
  1596  000246  0100               	movlb	0	; () banked
  1597  000248  23A3               	addwfc	(??_main+3)& (0+255),f,b
  1598  00024A  0100               	movlb	0	; () banked
  1599  00024C  51A2               	movf	(??_main+2)& (0+255),w,b
  1600  00024E  0100               	movlb	0	; () banked
  1601  000250  11A3               	iorwf	(??_main+3)& (0+255),w,b
  1602  000252  A4D8               	btfss	status,2,c
  1603  000254  D034               	goto	l4357
  1604                           
  1605                           ; BSR set to: 0
  1606  000256  0101               	movlb	1	; () banked
  1607  000258  517C               	movf	main@n& (0+255),w,b
  1608  00025A  0101               	movlb	1	; () banked
  1609  00025C  B4D8               	btfsc	status,2,c
  1610  00025E  D02F               	goto	l4357
  1611                           
  1612                           ; BSR set to: 1
  1613                           ;main.c: 89: {
  1614                           ;main.c: 90: buffer[n] = '?';
  1615  000260  0101               	movlb	1	; () banked
  1616  000262  517C               	movf	main@n& (0+255),w,b
  1617  000264  0D01               	mullw	1
  1618  000266  0E5A               	movlw	low main@buffer
  1619  000268  24F3               	addwf	prodl,w,c
  1620  00026A  6ED9               	movwf	fsr2l,c
  1621  00026C  0E01               	movlw	high main@buffer
  1622  00026E  20F4               	addwfc	prodh,w,c
  1623  000270  6EDA               	movwf	fsr2h,c
  1624  000272  0E3F               	movlw	63
  1625  000274  6EDF               	movwf	indf2,c
  1626                           
  1627                           ; BSR set to: 1
  1628                           ;main.c: 91: Lcd_Set_Cursor(2, 7 + n);
  1629  000276  0101               	movlb	1	; () banked
  1630  000278  517C               	movf	main@n& (0+255),w,b
  1631  00027A  0F07               	addlw	7
  1632  00027C  6E1A               	movwf	Lcd_Set_Cursor@b,c
  1633  00027E  0E02               	movlw	2
  1634  000280  EC92  F00D         	call	_Lcd_Set_Cursor
  1635                           
  1636                           ;main.c: 92: Lcd_Write_Char('_');
  1637  000284  0E5F               	movlw	95
  1638  000286  ECE2  F00D         	call	_Lcd_Write_Char
  1639                           
  1640                           ;main.c: 93: latch_keypad(&x);
  1641  00028A  0E7D               	movlw	low main@x
  1642  00028C  6E18               	movwf	latch_keypad@x,c
  1643  00028E  0E01               	movlw	high main@x
  1644  000290  6E19               	movwf	latch_keypad@x+1,c
  1645  000292  ECFE  F00D         	call	_latch_keypad	;wreg free
  1646                           
  1647                           ;main.c: 94: Lcd_Set_Cursor(2, 8 + n);
  1648  000296  0101               	movlb	1	; () banked
  1649  000298  517C               	movf	main@n& (0+255),w,b
  1650  00029A  0F08               	addlw	8
  1651  00029C  6E1A               	movwf	Lcd_Set_Cursor@b,c
  1652  00029E  0E02               	movlw	2
  1653  0002A0  EC92  F00D         	call	_Lcd_Set_Cursor
  1654                           
  1655                           ;main.c: 95: Lcd_Write_Char(' ');
  1656  0002A4  0E20               	movlw	32
  1657  0002A6  ECE2  F00D         	call	_Lcd_Write_Char
  1658                           
  1659                           ;main.c: 96: Lcd_Set_Cursor(2, 7 + n);
  1660  0002AA  0101               	movlb	1	; () banked
  1661  0002AC  517C               	movf	main@n& (0+255),w,b
  1662  0002AE  0F07               	addlw	7
  1663  0002B0  6E1A               	movwf	Lcd_Set_Cursor@b,c
  1664  0002B2  0E02               	movlw	2
  1665  0002B4  EC92  F00D         	call	_Lcd_Set_Cursor
  1666                           
  1667                           ;main.c: 97: n--;
  1668  0002B8  0101               	movlb	1	; () banked
  1669  0002BA  077C               	decf	main@n& (0+255),f,b
  1670                           
  1671                           ;main.c: 98: }
  1672  0002BC  D056               	goto	l4375
  1673  0002BE                     l4357:
  1674                           
  1675                           ;main.c: 99: else if ((x - '#') != 0)
  1676  0002BE  0EDD               	movlw	221
  1677  0002C0  0100               	movlb	0	; () banked
  1678  0002C2  6FA0               	movwf	??_main& (0+255),b
  1679  0002C4  0EFF               	movlw	255
  1680  0002C6  0100               	movlb	0	; () banked
  1681  0002C8  6FA1               	movwf	(??_main+1)& (0+255),b
  1682  0002CA  0101               	movlb	1	; () banked
  1683  0002CC  517D               	movf	main@x& (0+255),w,b
  1684  0002CE  0100               	movlb	0	; () banked
  1685  0002D0  6FA2               	movwf	(??_main+2)& (0+255),b
  1686  0002D2  6BA3               	clrf	(??_main+3)& (0+255),b
  1687  0002D4  0100               	movlb	0	; () banked
  1688  0002D6  51A0               	movf	??_main& (0+255),w,b
  1689  0002D8  0100               	movlb	0	; () banked
  1690  0002DA  27A2               	addwf	(??_main+2)& (0+255),f,b
  1691  0002DC  0100               	movlb	0	; () banked
  1692  0002DE  51A1               	movf	(??_main+1)& (0+255),w,b
  1693  0002E0  0100               	movlb	0	; () banked
  1694  0002E2  23A3               	addwfc	(??_main+3)& (0+255),f,b
  1695  0002E4  0100               	movlb	0	; () banked
  1696  0002E6  51A2               	movf	(??_main+2)& (0+255),w,b
  1697  0002E8  0100               	movlb	0	; () banked
  1698  0002EA  11A3               	iorwf	(??_main+3)& (0+255),w,b
  1699  0002EC  B4D8               	btfsc	status,2,c
  1700  0002EE  D03D               	goto	l4375
  1701                           
  1702                           ; BSR set to: 0
  1703                           ;main.c: 100: {
  1704                           ;main.c: 101: if ((x == '*')|(n == 9))
  1705  0002F0  0E2A               	movlw	42
  1706  0002F2  0101               	movlb	1	; () banked
  1707  0002F4  197D               	xorwf	main@x& (0+255),w,b
  1708  0002F6  B4D8               	btfsc	status,2,c
  1709  0002F8  D03C               	goto	l4377
  1710                           
  1711                           ; BSR set to: 1
  1712  0002FA  0E09               	movlw	9
  1713  0002FC  0101               	movlb	1	; () banked
  1714  0002FE  197C               	xorwf	main@n& (0+255),w,b
  1715  000300  B4D8               	btfsc	status,2,c
  1716  000302  D037               	goto	l4377
  1717                           
  1718                           ; BSR set to: 1
  1719                           ;main.c: 104: }
  1720                           ;main.c: 105: n++;
  1721                           
  1722                           ; BSR set to: 1
  1723                           
  1724                           ; BSR set to: 1
  1725                           ;main.c: 102: {
  1726                           ;main.c: 103: break;
  1727  000304  0101               	movlb	1	; () banked
  1728  000306  2B7C               	incf	main@n& (0+255),f,b
  1729                           
  1730                           ; BSR set to: 1
  1731                           ;main.c: 106: buffer[n-1] = x;
  1732  000308  0EFF               	movlw	255
  1733  00030A  0100               	movlb	0	; () banked
  1734  00030C  6FA0               	movwf	??_main& (0+255),b
  1735  00030E  0EFF               	movlw	255
  1736  000310  0100               	movlb	0	; () banked
  1737  000312  6FA1               	movwf	(??_main+1)& (0+255),b
  1738  000314  0101               	movlb	1	; () banked
  1739  000316  517C               	movf	main@n& (0+255),w,b
  1740  000318  0100               	movlb	0	; () banked
  1741  00031A  6FA2               	movwf	(??_main+2)& (0+255),b
  1742  00031C  6BA3               	clrf	(??_main+3)& (0+255),b
  1743  00031E  0100               	movlb	0	; () banked
  1744  000320  51A0               	movf	??_main& (0+255),w,b
  1745  000322  0100               	movlb	0	; () banked
  1746  000324  27A2               	addwf	(??_main+2)& (0+255),f,b
  1747  000326  0100               	movlb	0	; () banked
  1748  000328  51A1               	movf	(??_main+1)& (0+255),w,b
  1749  00032A  0100               	movlb	0	; () banked
  1750  00032C  23A3               	addwfc	(??_main+3)& (0+255),f,b
  1751  00032E  0E5A               	movlw	low main@buffer
  1752  000330  0100               	movlb	0	; () banked
  1753  000332  25A2               	addwf	(??_main+2)& (0+255),w,b
  1754  000334  6ED9               	movwf	fsr2l,c
  1755  000336  0E01               	movlw	high main@buffer
  1756  000338  0100               	movlb	0	; () banked
  1757  00033A  21A3               	addwfc	(??_main+3)& (0+255),w,b
  1758  00033C  6EDA               	movwf	fsr2h,c
  1759  00033E  C17D  FFDF         	movff	main@x,indf2
  1760                           
  1761                           ; BSR set to: 0
  1762                           ;main.c: 107: Lcd_Set_Cursor(2, 7 + n);
  1763  000342  0101               	movlb	1	; () banked
  1764  000344  517C               	movf	main@n& (0+255),w,b
  1765  000346  0F07               	addlw	7
  1766  000348  6E1A               	movwf	Lcd_Set_Cursor@b,c
  1767  00034A  0E02               	movlw	2
  1768  00034C  EC92  F00D         	call	_Lcd_Set_Cursor
  1769                           
  1770                           ;main.c: 108: Lcd_Write_Char(x);
  1771  000350  0101               	movlb	1	; () banked
  1772  000352  517D               	movf	main@x& (0+255),w,b
  1773  000354  ECE2  F00D         	call	_Lcd_Write_Char
  1774                           
  1775                           ;main.c: 109: Lcd_Write_Char('_');
  1776  000358  0E5F               	movlw	95
  1777  00035A  ECE2  F00D         	call	_Lcd_Write_Char
  1778                           
  1779                           ;main.c: 110: latch_keypad(&x);
  1780  00035E  0E7D               	movlw	low main@x
  1781  000360  6E18               	movwf	latch_keypad@x,c
  1782  000362  0E01               	movlw	high main@x
  1783  000364  6E19               	movwf	latch_keypad@x+1,c
  1784  000366  ECFE  F00D         	call	_latch_keypad	;wreg free
  1785  00036A                     l4375:
  1786  00036A  0E09               	movlw	9
  1787  00036C  0101               	movlb	1	; () banked
  1788  00036E  657C               	cpfsgt	main@n& (0+255),b
  1789  000370  D72C               	goto	l4325
  1790  000372                     l4377:
  1791                           
  1792                           ; BSR set to: 1
  1793                           ;main.c: 111: }
  1794                           ;main.c: 112: }
  1795                           ;main.c: 113: }
  1796                           ;main.c: 114: for (int i = 0; i < 10; i++)
  1797  000372  0E00               	movlw	0
  1798  000374  0101               	movlb	1	; () banked
  1799  000376  6F67               	movwf	(main@i_765+1)& (0+255),b
  1800  000378  0E00               	movlw	0
  1801  00037A  6F66               	movwf	main@i_765& (0+255),b
  1802  00037C                     l4379:
  1803                           
  1804                           ; BSR set to: 1
  1805  00037C  0101               	movlb	1	; () banked
  1806  00037E  BF67               	btfsc	(main@i_765+1)& (0+255),7,b
  1807  000380  D008               	goto	l4383
  1808  000382  0101               	movlb	1	; () banked
  1809  000384  5167               	movf	(main@i_765+1)& (0+255),w,b
  1810  000386  E111               	bnz	l4387
  1811  000388  0E0A               	movlw	10
  1812  00038A  0101               	movlb	1	; () banked
  1813  00038C  5D66               	subwf	main@i_765& (0+255),w,b
  1814  00038E  B0D8               	btfsc	status,0,c
  1815  000390  D00C               	goto	l4387
  1816  000392                     l4383:
  1817                           
  1818                           ; BSR set to: 1
  1819                           ;main.c: 115: _delay((unsigned long)((10)*(16000000/4000.0)));
  1820  000392  0E34               	movlw	52
  1821  000394  0100               	movlb	0	; () banked
  1822  000396  6FA0               	movwf	??_main& (0+255),b
  1823  000398  0EF2               	movlw	242
  1824  00039A                     u4557:
  1825  00039A  2EE8               	decfsz	wreg,f,c
  1826  00039C  D7FE               	goto	u4557
  1827  00039E  2FA0               	decfsz	??_main& (0+255),f,b
  1828  0003A0  D7FC               	goto	u4557
  1829  0003A2  0101               	movlb	1	; () banked
  1830  0003A4  4B66               	infsnz	main@i_765& (0+255),f,b
  1831  0003A6  2B67               	incf	(main@i_765+1)& (0+255),f,b
  1832  0003A8  D7E9               	goto	l4379
  1833  0003AA                     l4387:
  1834                           
  1835                           ; BSR set to: 1
  1836                           ;main.c: 116: for (int i = 0; i < n; i++)
  1837  0003AA  0E00               	movlw	0
  1838  0003AC  0101               	movlb	1	; () banked
  1839  0003AE  6F6F               	movwf	(main@i_766+1)& (0+255),b
  1840  0003B0  0E00               	movlw	0
  1841  0003B2  6F6E               	movwf	main@i_766& (0+255),b
  1842  0003B4  D075               	goto	l4395
  1843  0003B6                     l4389:
  1844                           
  1845                           ;main.c: 117: {
  1846                           ;main.c: 118: current_user[8 - i] = buffer[(n-1) - i];
  1847  0003B6  0EFF               	movlw	255
  1848  0003B8  0100               	movlb	0	; () banked
  1849  0003BA  6FA0               	movwf	??_main& (0+255),b
  1850  0003BC  0EFF               	movlw	255
  1851  0003BE  0100               	movlb	0	; () banked
  1852  0003C0  6FA1               	movwf	(??_main+1)& (0+255),b
  1853  0003C2  C16E  F0A2         	movff	main@i_766,??_main+2
  1854  0003C6  C16F  F0A3         	movff	main@i_766+1,??_main+3
  1855  0003CA  0100               	movlb	0	; () banked
  1856  0003CC  1FA2               	comf	(??_main+2)& (0+255),f,b
  1857  0003CE  1FA3               	comf	(??_main+3)& (0+255),f,b
  1858  0003D0  4BA2               	infsnz	(??_main+2)& (0+255),f,b
  1859  0003D2  2BA3               	incf	(??_main+3)& (0+255),f,b
  1860  0003D4  0101               	movlb	1	; () banked
  1861  0003D6  517C               	movf	main@n& (0+255),w,b
  1862  0003D8  0100               	movlb	0	; () banked
  1863  0003DA  6FA4               	movwf	(??_main+4)& (0+255),b
  1864  0003DC  6BA5               	clrf	(??_main+5)& (0+255),b
  1865  0003DE  0100               	movlb	0	; () banked
  1866  0003E0  51A2               	movf	(??_main+2)& (0+255),w,b
  1867  0003E2  0100               	movlb	0	; () banked
  1868  0003E4  27A4               	addwf	(??_main+4)& (0+255),f,b
  1869  0003E6  0100               	movlb	0	; () banked
  1870  0003E8  51A3               	movf	(??_main+3)& (0+255),w,b
  1871  0003EA  0100               	movlb	0	; () banked
  1872  0003EC  23A5               	addwfc	(??_main+5)& (0+255),f,b
  1873  0003EE  0100               	movlb	0	; () banked
  1874  0003F0  51A0               	movf	??_main& (0+255),w,b
  1875  0003F2  0100               	movlb	0	; () banked
  1876  0003F4  27A4               	addwf	(??_main+4)& (0+255),f,b
  1877  0003F6  0100               	movlb	0	; () banked
  1878  0003F8  51A1               	movf	(??_main+1)& (0+255),w,b
  1879  0003FA  0100               	movlb	0	; () banked
  1880  0003FC  23A5               	addwfc	(??_main+5)& (0+255),f,b
  1881  0003FE  0E5A               	movlw	low main@buffer
  1882  000400  0100               	movlb	0	; () banked
  1883  000402  25A4               	addwf	(??_main+4)& (0+255),w,b
  1884  000404  6ED9               	movwf	fsr2l,c
  1885  000406  0E01               	movlw	high main@buffer
  1886  000408  0100               	movlb	0	; () banked
  1887  00040A  21A5               	addwfc	(??_main+5)& (0+255),w,b
  1888  00040C  6EDA               	movwf	fsr2h,c
  1889  00040E  C16E  F0A6         	movff	main@i_766,??_main+6
  1890  000412  C16F  F0A7         	movff	main@i_766+1,??_main+7
  1891  000416  0100               	movlb	0	; () banked
  1892  000418  1FA6               	comf	(??_main+6)& (0+255),f,b
  1893  00041A  1FA7               	comf	(??_main+7)& (0+255),f,b
  1894  00041C  4BA6               	infsnz	(??_main+6)& (0+255),f,b
  1895  00041E  2BA7               	incf	(??_main+7)& (0+255),f,b
  1896  000420  0E08               	movlw	8
  1897  000422  0100               	movlb	0	; () banked
  1898  000424  27A6               	addwf	(??_main+6)& (0+255),f,b
  1899  000426  0E00               	movlw	0
  1900  000428  23A7               	addwfc	(??_main+7)& (0+255),f,b
  1901  00042A  0ED3               	movlw	low _current_user
  1902  00042C  0100               	movlb	0	; () banked
  1903  00042E  25A6               	addwf	(??_main+6)& (0+255),w,b
  1904  000430  6EE1               	movwf	fsr1l,c
  1905  000432  0E00               	movlw	high _current_user
  1906  000434  0100               	movlb	0	; () banked
  1907  000436  21A7               	addwfc	(??_main+7)& (0+255),w,b
  1908  000438  6EE2               	movwf	fsr1h,c
  1909  00043A  CFDF FFE7          	movff	indf2,indf1
  1910                           
  1911                           ; BSR set to: 0
  1912                           ;main.c: 119: buffer[(n-1) - i] = '0';
  1913  00043E  0EFF               	movlw	255
  1914  000440  0100               	movlb	0	; () banked
  1915  000442  6FA0               	movwf	??_main& (0+255),b
  1916  000444  0EFF               	movlw	255
  1917  000446  0100               	movlb	0	; () banked
  1918  000448  6FA1               	movwf	(??_main+1)& (0+255),b
  1919  00044A  C16E  F0A2         	movff	main@i_766,??_main+2
  1920  00044E  C16F  F0A3         	movff	main@i_766+1,??_main+3
  1921  000452  0100               	movlb	0	; () banked
  1922  000454  1FA2               	comf	(??_main+2)& (0+255),f,b
  1923  000456  1FA3               	comf	(??_main+3)& (0+255),f,b
  1924  000458  4BA2               	infsnz	(??_main+2)& (0+255),f,b
  1925  00045A  2BA3               	incf	(??_main+3)& (0+255),f,b
  1926  00045C  0101               	movlb	1	; () banked
  1927  00045E  517C               	movf	main@n& (0+255),w,b
  1928  000460  0100               	movlb	0	; () banked
  1929  000462  6FA4               	movwf	(??_main+4)& (0+255),b
  1930  000464  6BA5               	clrf	(??_main+5)& (0+255),b
  1931  000466  0100               	movlb	0	; () banked
  1932  000468  51A2               	movf	(??_main+2)& (0+255),w,b
  1933  00046A  0100               	movlb	0	; () banked
  1934  00046C  27A4               	addwf	(??_main+4)& (0+255),f,b
  1935  00046E  0100               	movlb	0	; () banked
  1936  000470  51A3               	movf	(??_main+3)& (0+255),w,b
  1937  000472  0100               	movlb	0	; () banked
  1938  000474  23A5               	addwfc	(??_main+5)& (0+255),f,b
  1939  000476  0100               	movlb	0	; () banked
  1940  000478  51A0               	movf	??_main& (0+255),w,b
  1941  00047A  0100               	movlb	0	; () banked
  1942  00047C  27A4               	addwf	(??_main+4)& (0+255),f,b
  1943  00047E  0100               	movlb	0	; () banked
  1944  000480  51A1               	movf	(??_main+1)& (0+255),w,b
  1945  000482  0100               	movlb	0	; () banked
  1946  000484  23A5               	addwfc	(??_main+5)& (0+255),f,b
  1947  000486  0E5A               	movlw	low main@buffer
  1948  000488  0100               	movlb	0	; () banked
  1949  00048A  25A4               	addwf	(??_main+4)& (0+255),w,b
  1950  00048C  6ED9               	movwf	fsr2l,c
  1951  00048E  0E01               	movlw	high main@buffer
  1952  000490  0100               	movlb	0	; () banked
  1953  000492  21A5               	addwfc	(??_main+5)& (0+255),w,b
  1954  000494  6EDA               	movwf	fsr2h,c
  1955  000496  0E30               	movlw	48
  1956  000498  6EDF               	movwf	indf2,c
  1957                           
  1958                           ; BSR set to: 0
  1959  00049A  0101               	movlb	1	; () banked
  1960  00049C  4B6E               	infsnz	main@i_766& (0+255),f,b
  1961  00049E  2B6F               	incf	(main@i_766+1)& (0+255),f,b
  1962  0004A0                     l4395:
  1963                           
  1964                           ; BSR set to: 1
  1965  0004A0  0101               	movlb	1	; () banked
  1966  0004A2  517C               	movf	main@n& (0+255),w,b
  1967  0004A4  0100               	movlb	0	; () banked
  1968  0004A6  6FA0               	movwf	??_main& (0+255),b
  1969  0004A8  6BA1               	clrf	(??_main+1)& (0+255),b
  1970  0004AA  0100               	movlb	0	; () banked
  1971  0004AC  51A0               	movf	??_main& (0+255),w,b
  1972  0004AE  0101               	movlb	1	; () banked
  1973  0004B0  5D6E               	subwf	main@i_766& (0+255),w,b
  1974  0004B2  0101               	movlb	1	; () banked
  1975  0004B4  516F               	movf	(main@i_766+1)& (0+255),w,b
  1976  0004B6  0A80               	xorlw	128
  1977  0004B8  0100               	movlb	0	; () banked
  1978  0004BA  6FA2               	movwf	(??_main+2)& (0+255),b
  1979  0004BC  0100               	movlb	0	; () banked
  1980  0004BE  51A1               	movf	(??_main+1)& (0+255),w,b
  1981  0004C0  0A80               	xorlw	128
  1982  0004C2  0100               	movlb	0	; () banked
  1983  0004C4  59A2               	subwfb	(??_main+2)& (0+255),w,b
  1984  0004C6  A0D8               	btfss	status,0,c
  1985  0004C8  D776               	goto	l4389
  1986                           
  1987                           ; BSR set to: 0
  1988                           ;main.c: 120: }
  1989                           ;main.c: 121: Lcd_Clear();
  1990                           
  1991                           ; BSR set to: 0
  1992  0004CA  EC66  F00E         	call	_Lcd_Clear	;wreg free
  1993                           
  1994                           ;main.c: 122: menu_progress_bar(100);
  1995  0004CE  0E00               	movlw	0
  1996  0004D0  6E26               	movwf	menu_progress_bar@load_time_ms+1,c
  1997  0004D2  0E64               	movlw	100
  1998  0004D4  6E25               	movwf	menu_progress_bar@load_time_ms,c
  1999  0004D6  ECD1  F00A         	call	_menu_progress_bar	;wreg free
  2000                           
  2001                           ;main.c: 126: p = 0;
  2002  0004DA  0E00               	movlw	0
  2003  0004DC  0101               	movlb	1	; () banked
  2004  0004DE  6F7B               	movwf	main@p& (0+255),b
  2005                           
  2006                           ; BSR set to: 1
  2007                           ;main.c: 127: Lcd_Set_Cursor(1,1);
  2008  0004E0  0E01               	movlw	1
  2009  0004E2  6E1A               	movwf	Lcd_Set_Cursor@b,c
  2010  0004E4  0E01               	movlw	1
  2011  0004E6  EC92  F00D         	call	_Lcd_Set_Cursor
  2012                           
  2013                           ;main.c: 128: Lcd_Write_String("Enter your PIN: ");
  2014  0004EA  0E27               	movlw	low STR_5
  2015  0004EC  6E1C               	movwf	Lcd_Write_String@a,c
  2016  0004EE  0E7C               	movlw	high STR_5
  2017  0004F0  6E1D               	movwf	Lcd_Write_String@a+1,c
  2018  0004F2  EC08  F00D         	call	_Lcd_Write_String	;wreg free
  2019                           
  2020                           ;main.c: 129: Lcd_Set_Cursor(2,1);
  2021  0004F6  0E01               	movlw	1
  2022  0004F8  6E1A               	movwf	Lcd_Set_Cursor@b,c
  2023  0004FA  0E02               	movlw	2
  2024  0004FC  EC92  F00D         	call	_Lcd_Set_Cursor
  2025                           
  2026                           ;main.c: 130: Lcd_Write_String("[ ]             ");
  2027  000500  0E8E               	movlw	low STR_4
  2028  000502  6E1C               	movwf	Lcd_Write_String@a,c
  2029  000504  0E7B               	movlw	high STR_4
  2030  000506  6E1D               	movwf	Lcd_Write_String@a+1,c
  2031  000508  EC08  F00D         	call	_Lcd_Write_String	;wreg free
  2032                           
  2033                           ;main.c: 131: Lcd_Set_Cursor(2,1);
  2034  00050C  0E01               	movlw	1
  2035  00050E  6E1A               	movwf	Lcd_Set_Cursor@b,c
  2036  000510  0E02               	movlw	2
  2037  000512  EC92  F00D         	call	_Lcd_Set_Cursor
  2038                           
  2039                           ;main.c: 132: while (p < 10)
  2040  000516  D0D8               	goto	l4465
  2041  000518                     l4413:
  2042                           
  2043                           ;main.c: 133: {
  2044                           ;main.c: 134: if (p == 9)
  2045  000518  0E09               	movlw	9
  2046  00051A  0101               	movlb	1	; () banked
  2047  00051C  197B               	xorwf	main@p& (0+255),w,b
  2048  00051E  B4D8               	btfsc	status,2,c
  2049  000520  D0D7               	goto	l4467
  2050                           
  2051                           ; BSR set to: 1
  2052                           ;main.c: 136: char c[] = {'0','1','2','3','4','5','6','7','8','9'};
  2053                           
  2054                           ; BSR set to: 1
  2055                           
  2056                           ; BSR set to: 1
  2057                           ;main.c: 135: break;
  2058  000522  EE20  F0B3         	lfsr	2,main@F3678
  2059  000526  EE11  F050         	lfsr	1,main@c
  2060  00052A  0E09               	movlw	9
  2061  00052C                     u4261:
  2062  00052C  CFDB FFE3          	movff	plusw2,plusw1
  2063  000530  06E8               	decf	wreg,f,c
  2064  000532  E2FC               	bc	u4261
  2065                           
  2066                           ; BSR set to: 1
  2067                           ;main.c: 137: Lcd_Set_Cursor(2,2);
  2068  000534  0E02               	movlw	2
  2069  000536  6E1A               	movwf	Lcd_Set_Cursor@b,c
  2070  000538  0E02               	movlw	2
  2071  00053A  EC92  F00D         	call	_Lcd_Set_Cursor
  2072                           
  2073                           ;main.c: 138: Lcd_Write_Char(c[9-p]);
  2074  00053E  0101               	movlb	1	; () banked
  2075  000540  517B               	movf	main@p& (0+255),w,b
  2076  000542  0100               	movlb	0	; () banked
  2077  000544  6FA0               	movwf	??_main& (0+255),b
  2078  000546  6BA1               	clrf	(??_main+1)& (0+255),b
  2079  000548  0100               	movlb	0	; () banked
  2080  00054A  1FA0               	comf	??_main& (0+255),f,b
  2081  00054C  1FA1               	comf	(??_main+1)& (0+255),f,b
  2082  00054E  4BA0               	infsnz	??_main& (0+255),f,b
  2083  000550  2BA1               	incf	(??_main+1)& (0+255),f,b
  2084  000552  0E09               	movlw	9
  2085  000554  0100               	movlb	0	; () banked
  2086  000556  27A0               	addwf	??_main& (0+255),f,b
  2087  000558  0E00               	movlw	0
  2088  00055A  23A1               	addwfc	(??_main+1)& (0+255),f,b
  2089  00055C  0E50               	movlw	low main@c
  2090  00055E  0100               	movlb	0	; () banked
  2091  000560  25A0               	addwf	??_main& (0+255),w,b
  2092  000562  6ED9               	movwf	fsr2l,c
  2093  000564  0E01               	movlw	high main@c
  2094  000566  0100               	movlb	0	; () banked
  2095  000568  21A1               	addwfc	(??_main+1)& (0+255),w,b
  2096  00056A  6EDA               	movwf	fsr2h,c
  2097  00056C  50DF               	movf	indf2,w,c
  2098  00056E  ECE2  F00D         	call	_Lcd_Write_Char
  2099                           
  2100                           ;main.c: 139: x = read_keypad();
  2101  000572  ECA2  F00B         	call	_read_keypad	;wreg free
  2102  000576  0101               	movlb	1	; () banked
  2103  000578  6F7D               	movwf	main@x& (0+255),b
  2104                           
  2105                           ; BSR set to: 1
  2106                           ;main.c: 140: if (x != '_')
  2107  00057A  0E5F               	movlw	95
  2108  00057C  0101               	movlb	1	; () banked
  2109  00057E  197D               	xorwf	main@x& (0+255),w,b
  2110  000580  B4D8               	btfsc	status,2,c
  2111  000582  D0A2               	goto	l4465
  2112                           
  2113                           ; BSR set to: 1
  2114                           ;main.c: 141: {
  2115                           ;main.c: 142: if (((x - '#') == 0)&&(p > 0))
  2116  000584  0EDD               	movlw	221
  2117  000586  0100               	movlb	0	; () banked
  2118  000588  6FA0               	movwf	??_main& (0+255),b
  2119  00058A  0EFF               	movlw	255
  2120  00058C  0100               	movlb	0	; () banked
  2121  00058E  6FA1               	movwf	(??_main+1)& (0+255),b
  2122  000590  0101               	movlb	1	; () banked
  2123  000592  517D               	movf	main@x& (0+255),w,b
  2124  000594  0100               	movlb	0	; () banked
  2125  000596  6FA2               	movwf	(??_main+2)& (0+255),b
  2126  000598  6BA3               	clrf	(??_main+3)& (0+255),b
  2127  00059A  0100               	movlb	0	; () banked
  2128  00059C  51A0               	movf	??_main& (0+255),w,b
  2129  00059E  0100               	movlb	0	; () banked
  2130  0005A0  27A2               	addwf	(??_main+2)& (0+255),f,b
  2131  0005A2  0100               	movlb	0	; () banked
  2132  0005A4  51A1               	movf	(??_main+1)& (0+255),w,b
  2133  0005A6  0100               	movlb	0	; () banked
  2134  0005A8  23A3               	addwfc	(??_main+3)& (0+255),f,b
  2135  0005AA  0100               	movlb	0	; () banked
  2136  0005AC  51A2               	movf	(??_main+2)& (0+255),w,b
  2137  0005AE  0100               	movlb	0	; () banked
  2138  0005B0  11A3               	iorwf	(??_main+3)& (0+255),w,b
  2139  0005B2  A4D8               	btfss	status,2,c
  2140  0005B4  D034               	goto	l4447
  2141                           
  2142                           ; BSR set to: 0
  2143  0005B6  0101               	movlb	1	; () banked
  2144  0005B8  517B               	movf	main@p& (0+255),w,b
  2145  0005BA  0101               	movlb	1	; () banked
  2146  0005BC  B4D8               	btfsc	status,2,c
  2147  0005BE  D02F               	goto	l4447
  2148                           
  2149                           ; BSR set to: 1
  2150                           ;main.c: 143: {
  2151                           ;main.c: 144: buffer[p] = '?';
  2152  0005C0  0101               	movlb	1	; () banked
  2153  0005C2  517B               	movf	main@p& (0+255),w,b
  2154  0005C4  0D01               	mullw	1
  2155  0005C6  0E5A               	movlw	low main@buffer
  2156  0005C8  24F3               	addwf	prodl,w,c
  2157  0005CA  6ED9               	movwf	fsr2l,c
  2158  0005CC  0E01               	movlw	high main@buffer
  2159  0005CE  20F4               	addwfc	prodh,w,c
  2160  0005D0  6EDA               	movwf	fsr2h,c
  2161  0005D2  0E3F               	movlw	63
  2162  0005D4  6EDF               	movwf	indf2,c
  2163                           
  2164                           ; BSR set to: 1
  2165                           ;main.c: 145: Lcd_Set_Cursor(2, 7 + p);
  2166  0005D6  0101               	movlb	1	; () banked
  2167  0005D8  517B               	movf	main@p& (0+255),w,b
  2168  0005DA  0F07               	addlw	7
  2169  0005DC  6E1A               	movwf	Lcd_Set_Cursor@b,c
  2170  0005DE  0E02               	movlw	2
  2171  0005E0  EC92  F00D         	call	_Lcd_Set_Cursor
  2172                           
  2173                           ;main.c: 146: Lcd_Write_Char('_');
  2174  0005E4  0E5F               	movlw	95
  2175  0005E6  ECE2  F00D         	call	_Lcd_Write_Char
  2176                           
  2177                           ;main.c: 147: latch_keypad(&x);
  2178  0005EA  0E7D               	movlw	low main@x
  2179  0005EC  6E18               	movwf	latch_keypad@x,c
  2180  0005EE  0E01               	movlw	high main@x
  2181  0005F0  6E19               	movwf	latch_keypad@x+1,c
  2182  0005F2  ECFE  F00D         	call	_latch_keypad	;wreg free
  2183                           
  2184                           ;main.c: 148: Lcd_Set_Cursor(2, 8 + p);
  2185  0005F6  0101               	movlb	1	; () banked
  2186  0005F8  517B               	movf	main@p& (0+255),w,b
  2187  0005FA  0F08               	addlw	8
  2188  0005FC  6E1A               	movwf	Lcd_Set_Cursor@b,c
  2189  0005FE  0E02               	movlw	2
  2190  000600  EC92  F00D         	call	_Lcd_Set_Cursor
  2191                           
  2192                           ;main.c: 149: Lcd_Write_Char(' ');
  2193  000604  0E20               	movlw	32
  2194  000606  ECE2  F00D         	call	_Lcd_Write_Char
  2195                           
  2196                           ;main.c: 150: Lcd_Set_Cursor(2, 7 + p);
  2197  00060A  0101               	movlb	1	; () banked
  2198  00060C  517B               	movf	main@p& (0+255),w,b
  2199  00060E  0F07               	addlw	7
  2200  000610  6E1A               	movwf	Lcd_Set_Cursor@b,c
  2201  000612  0E02               	movlw	2
  2202  000614  EC92  F00D         	call	_Lcd_Set_Cursor
  2203                           
  2204                           ;main.c: 151: p--;
  2205  000618  0101               	movlb	1	; () banked
  2206  00061A  077B               	decf	main@p& (0+255),f,b
  2207                           
  2208                           ;main.c: 152: }
  2209  00061C  D055               	goto	l4465
  2210  00061E                     l4447:
  2211                           
  2212                           ;main.c: 153: else if ((x - '#') != 0)
  2213  00061E  0EDD               	movlw	221
  2214  000620  0100               	movlb	0	; () banked
  2215  000622  6FA0               	movwf	??_main& (0+255),b
  2216  000624  0EFF               	movlw	255
  2217  000626  0100               	movlb	0	; () banked
  2218  000628  6FA1               	movwf	(??_main+1)& (0+255),b
  2219  00062A  0101               	movlb	1	; () banked
  2220  00062C  517D               	movf	main@x& (0+255),w,b
  2221  00062E  0100               	movlb	0	; () banked
  2222  000630  6FA2               	movwf	(??_main+2)& (0+255),b
  2223  000632  6BA3               	clrf	(??_main+3)& (0+255),b
  2224  000634  0100               	movlb	0	; () banked
  2225  000636  51A0               	movf	??_main& (0+255),w,b
  2226  000638  0100               	movlb	0	; () banked
  2227  00063A  27A2               	addwf	(??_main+2)& (0+255),f,b
  2228  00063C  0100               	movlb	0	; () banked
  2229  00063E  51A1               	movf	(??_main+1)& (0+255),w,b
  2230  000640  0100               	movlb	0	; () banked
  2231  000642  23A3               	addwfc	(??_main+3)& (0+255),f,b
  2232  000644  0100               	movlb	0	; () banked
  2233  000646  51A2               	movf	(??_main+2)& (0+255),w,b
  2234  000648  0100               	movlb	0	; () banked
  2235  00064A  11A3               	iorwf	(??_main+3)& (0+255),w,b
  2236  00064C  B4D8               	btfsc	status,2,c
  2237  00064E  D03C               	goto	l4465
  2238                           
  2239                           ; BSR set to: 0
  2240                           ;main.c: 154: {
  2241                           ;main.c: 155: if ((x == '*')|(p == 9))
  2242  000650  0E2A               	movlw	42
  2243  000652  0101               	movlb	1	; () banked
  2244  000654  197D               	xorwf	main@x& (0+255),w,b
  2245  000656  B4D8               	btfsc	status,2,c
  2246  000658  D03B               	goto	l4467
  2247                           
  2248                           ; BSR set to: 1
  2249  00065A  0E09               	movlw	9
  2250  00065C  0101               	movlb	1	; () banked
  2251  00065E  197B               	xorwf	main@p& (0+255),w,b
  2252  000660  B4D8               	btfsc	status,2,c
  2253  000662  D036               	goto	l4467
  2254                           
  2255                           ; BSR set to: 1
  2256                           ;main.c: 158: }
  2257                           ;main.c: 159: p++;
  2258                           
  2259                           ; BSR set to: 1
  2260                           
  2261                           ; BSR set to: 1
  2262                           ;main.c: 156: {
  2263                           ;main.c: 157: break;
  2264  000664  0101               	movlb	1	; () banked
  2265  000666  2B7B               	incf	main@p& (0+255),f,b
  2266                           
  2267                           ; BSR set to: 1
  2268                           ;main.c: 160: buffer[p-1] = x;
  2269  000668  0EFF               	movlw	255
  2270  00066A  0100               	movlb	0	; () banked
  2271  00066C  6FA0               	movwf	??_main& (0+255),b
  2272  00066E  0EFF               	movlw	255
  2273  000670  0100               	movlb	0	; () banked
  2274  000672  6FA1               	movwf	(??_main+1)& (0+255),b
  2275  000674  0101               	movlb	1	; () banked
  2276  000676  517B               	movf	main@p& (0+255),w,b
  2277  000678  0100               	movlb	0	; () banked
  2278  00067A  6FA2               	movwf	(??_main+2)& (0+255),b
  2279  00067C  6BA3               	clrf	(??_main+3)& (0+255),b
  2280  00067E  0100               	movlb	0	; () banked
  2281  000680  51A0               	movf	??_main& (0+255),w,b
  2282  000682  0100               	movlb	0	; () banked
  2283  000684  27A2               	addwf	(??_main+2)& (0+255),f,b
  2284  000686  0100               	movlb	0	; () banked
  2285  000688  51A1               	movf	(??_main+1)& (0+255),w,b
  2286  00068A  0100               	movlb	0	; () banked
  2287  00068C  23A3               	addwfc	(??_main+3)& (0+255),f,b
  2288  00068E  0E5A               	movlw	low main@buffer
  2289  000690  0100               	movlb	0	; () banked
  2290  000692  25A2               	addwf	(??_main+2)& (0+255),w,b
  2291  000694  6ED9               	movwf	fsr2l,c
  2292  000696  0E01               	movlw	high main@buffer
  2293  000698  0100               	movlb	0	; () banked
  2294  00069A  21A3               	addwfc	(??_main+3)& (0+255),w,b
  2295  00069C  6EDA               	movwf	fsr2h,c
  2296  00069E  C17D  FFDF         	movff	main@x,indf2
  2297                           
  2298                           ; BSR set to: 0
  2299                           ;main.c: 161: Lcd_Set_Cursor(2, 7 + p);
  2300  0006A2  0101               	movlb	1	; () banked
  2301  0006A4  517B               	movf	main@p& (0+255),w,b
  2302  0006A6  0F07               	addlw	7
  2303  0006A8  6E1A               	movwf	Lcd_Set_Cursor@b,c
  2304  0006AA  0E02               	movlw	2
  2305  0006AC  EC92  F00D         	call	_Lcd_Set_Cursor
  2306                           
  2307                           ;main.c: 162: Lcd_Write_Char('*');
  2308  0006B0  0E2A               	movlw	42
  2309  0006B2  ECE2  F00D         	call	_Lcd_Write_Char
  2310                           
  2311                           ;main.c: 163: Lcd_Write_Char('_');
  2312  0006B6  0E5F               	movlw	95
  2313  0006B8  ECE2  F00D         	call	_Lcd_Write_Char
  2314                           
  2315                           ;main.c: 164: latch_keypad(&x);
  2316  0006BC  0E7D               	movlw	low main@x
  2317  0006BE  6E18               	movwf	latch_keypad@x,c
  2318  0006C0  0E01               	movlw	high main@x
  2319  0006C2  6E19               	movwf	latch_keypad@x+1,c
  2320  0006C4  ECFE  F00D         	call	_latch_keypad	;wreg free
  2321  0006C8                     l4465:
  2322  0006C8  0E09               	movlw	9
  2323  0006CA  0101               	movlb	1	; () banked
  2324  0006CC  657B               	cpfsgt	main@p& (0+255),b
  2325  0006CE  D724               	goto	l4413
  2326  0006D0                     l4467:
  2327                           
  2328                           ; BSR set to: 1
  2329                           ;main.c: 165: }
  2330                           ;main.c: 166: }
  2331                           ;main.c: 167: }
  2332                           ;main.c: 168: for (int i = 0; i < p; i++)
  2333  0006D0  0E00               	movlw	0
  2334  0006D2  0101               	movlb	1	; () banked
  2335  0006D4  6F6D               	movwf	(main@i_772+1)& (0+255),b
  2336  0006D6  0E00               	movlw	0
  2337  0006D8  6F6C               	movwf	main@i_772& (0+255),b
  2338  0006DA  D047               	goto	l4473
  2339  0006DC                     l4469:
  2340                           
  2341                           ;main.c: 169: current_pin[8 - i] = buffer[(p-1) - i];
  2342  0006DC  0EFF               	movlw	255
  2343  0006DE  0100               	movlb	0	; () banked
  2344  0006E0  6FA0               	movwf	??_main& (0+255),b
  2345  0006E2  0EFF               	movlw	255
  2346  0006E4  0100               	movlb	0	; () banked
  2347  0006E6  6FA1               	movwf	(??_main+1)& (0+255),b
  2348  0006E8  C16C  F0A2         	movff	main@i_772,??_main+2
  2349  0006EC  C16D  F0A3         	movff	main@i_772+1,??_main+3
  2350  0006F0  0100               	movlb	0	; () banked
  2351  0006F2  1FA2               	comf	(??_main+2)& (0+255),f,b
  2352  0006F4  1FA3               	comf	(??_main+3)& (0+255),f,b
  2353  0006F6  4BA2               	infsnz	(??_main+2)& (0+255),f,b
  2354  0006F8  2BA3               	incf	(??_main+3)& (0+255),f,b
  2355  0006FA  0101               	movlb	1	; () banked
  2356  0006FC  517B               	movf	main@p& (0+255),w,b
  2357  0006FE  0100               	movlb	0	; () banked
  2358  000700  6FA4               	movwf	(??_main+4)& (0+255),b
  2359  000702  6BA5               	clrf	(??_main+5)& (0+255),b
  2360  000704  0100               	movlb	0	; () banked
  2361  000706  51A2               	movf	(??_main+2)& (0+255),w,b
  2362  000708  0100               	movlb	0	; () banked
  2363  00070A  27A4               	addwf	(??_main+4)& (0+255),f,b
  2364  00070C  0100               	movlb	0	; () banked
  2365  00070E  51A3               	movf	(??_main+3)& (0+255),w,b
  2366  000710  0100               	movlb	0	; () banked
  2367  000712  23A5               	addwfc	(??_main+5)& (0+255),f,b
  2368  000714  0100               	movlb	0	; () banked
  2369  000716  51A0               	movf	??_main& (0+255),w,b
  2370  000718  0100               	movlb	0	; () banked
  2371  00071A  27A4               	addwf	(??_main+4)& (0+255),f,b
  2372  00071C  0100               	movlb	0	; () banked
  2373  00071E  51A1               	movf	(??_main+1)& (0+255),w,b
  2374  000720  0100               	movlb	0	; () banked
  2375  000722  23A5               	addwfc	(??_main+5)& (0+255),f,b
  2376  000724  0E5A               	movlw	low main@buffer
  2377  000726  0100               	movlb	0	; () banked
  2378  000728  25A4               	addwf	(??_main+4)& (0+255),w,b
  2379  00072A  6ED9               	movwf	fsr2l,c
  2380  00072C  0E01               	movlw	high main@buffer
  2381  00072E  0100               	movlb	0	; () banked
  2382  000730  21A5               	addwfc	(??_main+5)& (0+255),w,b
  2383  000732  6EDA               	movwf	fsr2h,c
  2384  000734  C16C  F0A6         	movff	main@i_772,??_main+6
  2385  000738  C16D  F0A7         	movff	main@i_772+1,??_main+7
  2386  00073C  0100               	movlb	0	; () banked
  2387  00073E  1FA6               	comf	(??_main+6)& (0+255),f,b
  2388  000740  1FA7               	comf	(??_main+7)& (0+255),f,b
  2389  000742  4BA6               	infsnz	(??_main+6)& (0+255),f,b
  2390  000744  2BA7               	incf	(??_main+7)& (0+255),f,b
  2391  000746  0E08               	movlw	8
  2392  000748  0100               	movlb	0	; () banked
  2393  00074A  27A6               	addwf	(??_main+6)& (0+255),f,b
  2394  00074C  0E00               	movlw	0
  2395  00074E  23A7               	addwfc	(??_main+7)& (0+255),f,b
  2396  000750  0ECA               	movlw	low _current_pin
  2397  000752  0100               	movlb	0	; () banked
  2398  000754  25A6               	addwf	(??_main+6)& (0+255),w,b
  2399  000756  6EE1               	movwf	fsr1l,c
  2400  000758  0E00               	movlw	high _current_pin
  2401  00075A  0100               	movlb	0	; () banked
  2402  00075C  21A7               	addwfc	(??_main+7)& (0+255),w,b
  2403  00075E  6EE2               	movwf	fsr1h,c
  2404  000760  CFDF FFE7          	movff	indf2,indf1
  2405                           
  2406                           ; BSR set to: 0
  2407  000764  0101               	movlb	1	; () banked
  2408  000766  4B6C               	infsnz	main@i_772& (0+255),f,b
  2409  000768  2B6D               	incf	(main@i_772+1)& (0+255),f,b
  2410  00076A                     l4473:
  2411                           
  2412                           ; BSR set to: 1
  2413  00076A  0101               	movlb	1	; () banked
  2414  00076C  517B               	movf	main@p& (0+255),w,b
  2415  00076E  0100               	movlb	0	; () banked
  2416  000770  6FA0               	movwf	??_main& (0+255),b
  2417  000772  6BA1               	clrf	(??_main+1)& (0+255),b
  2418  000774  0100               	movlb	0	; () banked
  2419  000776  51A0               	movf	??_main& (0+255),w,b
  2420  000778  0101               	movlb	1	; () banked
  2421  00077A  5D6C               	subwf	main@i_772& (0+255),w,b
  2422  00077C  0101               	movlb	1	; () banked
  2423  00077E  516D               	movf	(main@i_772+1)& (0+255),w,b
  2424  000780  0A80               	xorlw	128
  2425  000782  0100               	movlb	0	; () banked
  2426  000784  6FA2               	movwf	(??_main+2)& (0+255),b
  2427  000786  0100               	movlb	0	; () banked
  2428  000788  51A1               	movf	(??_main+1)& (0+255),w,b
  2429  00078A  0A80               	xorlw	128
  2430  00078C  0100               	movlb	0	; () banked
  2431  00078E  59A2               	subwfb	(??_main+2)& (0+255),w,b
  2432  000790  A0D8               	btfss	status,0,c
  2433  000792  D7A4               	goto	l4469
  2434                           
  2435                           ; BSR set to: 0
  2436                           ;main.c: 170: Lcd_Clear();
  2437                           
  2438                           ; BSR set to: 0
  2439  000794  EC66  F00E         	call	_Lcd_Clear	;wreg free
  2440                           
  2441                           ;main.c: 171: menu_progress_bar(100);
  2442  000798  0E00               	movlw	0
  2443  00079A  6E26               	movwf	menu_progress_bar@load_time_ms+1,c
  2444  00079C  0E64               	movlw	100
  2445  00079E  6E25               	movwf	menu_progress_bar@load_time_ms,c
  2446  0007A0  ECD1  F00A         	call	_menu_progress_bar	;wreg free
  2447                           
  2448                           ;main.c: 175: for (int i = 0; i < 9; i++)
  2449  0007A4  0E00               	movlw	0
  2450  0007A6  0101               	movlb	1	; () banked
  2451  0007A8  6F75               	movwf	(main@i_773+1)& (0+255),b
  2452  0007AA  0E00               	movlw	0
  2453  0007AC  6F74               	movwf	main@i_773& (0+255),b
  2454  0007AE                     l4481:
  2455                           
  2456                           ; BSR set to: 1
  2457  0007AE  0101               	movlb	1	; () banked
  2458  0007B0  BF75               	btfsc	(main@i_773+1)& (0+255),7,b
  2459  0007B2  D008               	goto	l4485
  2460  0007B4  0101               	movlb	1	; () banked
  2461  0007B6  5175               	movf	(main@i_773+1)& (0+255),w,b
  2462  0007B8  E141               	bnz	l4491
  2463  0007BA  0E09               	movlw	9
  2464  0007BC  0101               	movlb	1	; () banked
  2465  0007BE  5D74               	subwf	main@i_773& (0+255),w,b
  2466  0007C0  B0D8               	btfsc	status,0,c
  2467  0007C2  D03C               	goto	l4491
  2468  0007C4                     l4485:
  2469                           
  2470                           ; BSR set to: 1
  2471                           ;main.c: 176: {
  2472                           ;main.c: 177: i2c_r_reg[i+1] = current_user[i];
  2473  0007C4  0ED3               	movlw	low _current_user
  2474  0007C6  0101               	movlb	1	; () banked
  2475  0007C8  2574               	addwf	main@i_773& (0+255),w,b
  2476  0007CA  6ED9               	movwf	fsr2l,c
  2477  0007CC  0E00               	movlw	high _current_user
  2478  0007CE  0101               	movlb	1	; () banked
  2479  0007D0  2175               	addwfc	(main@i_773+1)& (0+255),w,b
  2480  0007D2  6EDA               	movwf	fsr2h,c
  2481  0007D4  0E01               	movlw	1
  2482  0007D6  0101               	movlb	1	; () banked
  2483  0007D8  2574               	addwf	main@i_773& (0+255),w,b
  2484  0007DA  0100               	movlb	0	; () banked
  2485  0007DC  6FA0               	movwf	??_main& (0+255),b
  2486  0007DE  0E00               	movlw	0
  2487  0007E0  0101               	movlb	1	; () banked
  2488  0007E2  2175               	addwfc	(main@i_773+1)& (0+255),w,b
  2489  0007E4  0100               	movlb	0	; () banked
  2490  0007E6  6FA1               	movwf	(??_main+1)& (0+255),b
  2491  0007E8  0E00               	movlw	low _i2c_r_reg
  2492  0007EA  0100               	movlb	0	; () banked
  2493  0007EC  25A0               	addwf	??_main& (0+255),w,b
  2494  0007EE  6EE1               	movwf	fsr1l,c
  2495  0007F0  0E01               	movlw	high _i2c_r_reg
  2496  0007F2  0100               	movlb	0	; () banked
  2497  0007F4  21A1               	addwfc	(??_main+1)& (0+255),w,b
  2498  0007F6  6EE2               	movwf	fsr1h,c
  2499  0007F8  CFDF FFE7          	movff	indf2,indf1
  2500                           
  2501                           ;main.c: 178: i2c_r_reg[i+10] = current_pin[i];
  2502  0007FC  0ECA               	movlw	low _current_pin
  2503  0007FE  0101               	movlb	1	; () banked
  2504  000800  2574               	addwf	main@i_773& (0+255),w,b
  2505  000802  6ED9               	movwf	fsr2l,c
  2506  000804  0E00               	movlw	high _current_pin
  2507  000806  0101               	movlb	1	; () banked
  2508  000808  2175               	addwfc	(main@i_773+1)& (0+255),w,b
  2509  00080A  6EDA               	movwf	fsr2h,c
  2510  00080C  0E0A               	movlw	10
  2511  00080E  0101               	movlb	1	; () banked
  2512  000810  2574               	addwf	main@i_773& (0+255),w,b
  2513  000812  0100               	movlb	0	; () banked
  2514  000814  6FA0               	movwf	??_main& (0+255),b
  2515  000816  0E00               	movlw	0
  2516  000818  0101               	movlb	1	; () banked
  2517  00081A  2175               	addwfc	(main@i_773+1)& (0+255),w,b
  2518  00081C  0100               	movlb	0	; () banked
  2519  00081E  6FA1               	movwf	(??_main+1)& (0+255),b
  2520  000820  0E00               	movlw	low _i2c_r_reg
  2521  000822  0100               	movlb	0	; () banked
  2522  000824  25A0               	addwf	??_main& (0+255),w,b
  2523  000826  6EE1               	movwf	fsr1l,c
  2524  000828  0E01               	movlw	high _i2c_r_reg
  2525  00082A  0100               	movlb	0	; () banked
  2526  00082C  21A1               	addwfc	(??_main+1)& (0+255),w,b
  2527  00082E  6EE2               	movwf	fsr1h,c
  2528  000830  CFDF FFE7          	movff	indf2,indf1
  2529                           
  2530                           ; BSR set to: 0
  2531  000834  0101               	movlb	1	; () banked
  2532  000836  4B74               	infsnz	main@i_773& (0+255),f,b
  2533  000838  2B75               	incf	(main@i_773+1)& (0+255),f,b
  2534  00083A  D7B9               	goto	l4481
  2535  00083C                     l4491:
  2536                           
  2537                           ; BSR set to: 1
  2538                           ;main.c: 179: }
  2539                           ;main.c: 181: credentials_accepted = 1;
  2540  00083C  0E01               	movlw	1
  2541  00083E  0100               	movlb	0	; () banked
  2542  000840  6FDD               	movwf	_credentials_accepted& (0+255),b	;volatile
  2543                           
  2544                           ;main.c: 182: for (int i = 0; i < 9; i++)
  2545  000842  0E00               	movlw	0
  2546  000844  0101               	movlb	1	; () banked
  2547  000846  6F77               	movwf	(main@i_774+1)& (0+255),b
  2548  000848  0E00               	movlw	0
  2549  00084A  6F76               	movwf	main@i_774& (0+255),b
  2550  00084C                     l4493:
  2551                           
  2552                           ; BSR set to: 1
  2553  00084C  0101               	movlb	1	; () banked
  2554  00084E  BF77               	btfsc	(main@i_774+1)& (0+255),7,b
  2555  000850  D008               	goto	l4497
  2556  000852  0101               	movlb	1	; () banked
  2557  000854  5177               	movf	(main@i_774+1)& (0+255),w,b
  2558  000856  E154               	bnz	l4505
  2559  000858  0E09               	movlw	9
  2560  00085A  0101               	movlb	1	; () banked
  2561  00085C  5D76               	subwf	main@i_774& (0+255),w,b
  2562  00085E  B0D8               	btfsc	status,0,c
  2563  000860  D04F               	goto	l4505
  2564  000862                     l4497:
  2565                           
  2566                           ; BSR set to: 1
  2567                           ;main.c: 183: {
  2568                           ;main.c: 184: if ((i2c_w_reg[i+1] != current_user[i])|(i2c_w_reg[i+10] != current_pin[i]
      +                          ))
  2569  000862  0ECA               	movlw	low _current_pin
  2570  000864  0101               	movlb	1	; () banked
  2571  000866  2576               	addwf	main@i_774& (0+255),w,b
  2572  000868  6ED9               	movwf	fsr2l,c
  2573  00086A  0E00               	movlw	high _current_pin
  2574  00086C  0101               	movlb	1	; () banked
  2575  00086E  2177               	addwfc	(main@i_774+1)& (0+255),w,b
  2576  000870  6EDA               	movwf	fsr2h,c
  2577  000872  0E0A               	movlw	10
  2578  000874  0101               	movlb	1	; () banked
  2579  000876  2576               	addwf	main@i_774& (0+255),w,b
  2580  000878  0100               	movlb	0	; () banked
  2581  00087A  6FA1               	movwf	(??_main+1)& (0+255),b
  2582  00087C  0E00               	movlw	0
  2583  00087E  0101               	movlb	1	; () banked
  2584  000880  2177               	addwfc	(main@i_774+1)& (0+255),w,b
  2585  000882  0100               	movlb	0	; () banked
  2586  000884  6FA2               	movwf	(??_main+2)& (0+255),b
  2587  000886  0E20               	movlw	low _i2c_w_reg
  2588  000888  0100               	movlb	0	; () banked
  2589  00088A  25A1               	addwf	(??_main+1)& (0+255),w,b
  2590  00088C  6EE1               	movwf	fsr1l,c
  2591  00088E  0E01               	movlw	high _i2c_w_reg
  2592  000890  0100               	movlb	0	; () banked
  2593  000892  21A2               	addwfc	(??_main+2)& (0+255),w,b
  2594  000894  6EE2               	movwf	fsr1h,c
  2595  000896  50DE               	movf	postinc2,w,c
  2596  000898  18E6               	xorwf	postinc1,w,c
  2597  00089A  B4D8               	btfsc	status,2,c
  2598  00089C  D002               	goto	u4380
  2599  00089E  0E01               	movlw	1
  2600  0008A0  D001               	goto	u4382
  2601  0008A2                     u4380:
  2602  0008A2  0E00               	movlw	0
  2603  0008A4                     u4382:
  2604  0008A4  0100               	movlb	0	; () banked
  2605  0008A6  6FA4               	movwf	(??_main+4)& (0+255),b
  2606  0008A8  0ED3               	movlw	low _current_user
  2607  0008AA  0101               	movlb	1	; () banked
  2608  0008AC  2576               	addwf	main@i_774& (0+255),w,b
  2609  0008AE  6ED9               	movwf	fsr2l,c
  2610  0008B0  0E00               	movlw	high _current_user
  2611  0008B2  0101               	movlb	1	; () banked
  2612  0008B4  2177               	addwfc	(main@i_774+1)& (0+255),w,b
  2613  0008B6  6EDA               	movwf	fsr2h,c
  2614  0008B8  0E01               	movlw	1
  2615  0008BA  0101               	movlb	1	; () banked
  2616  0008BC  2576               	addwf	main@i_774& (0+255),w,b
  2617  0008BE  0100               	movlb	0	; () banked
  2618  0008C0  6FA6               	movwf	(??_main+6)& (0+255),b
  2619  0008C2  0E00               	movlw	0
  2620  0008C4  0101               	movlb	1	; () banked
  2621  0008C6  2177               	addwfc	(main@i_774+1)& (0+255),w,b
  2622  0008C8  0100               	movlb	0	; () banked
  2623  0008CA  6FA7               	movwf	(??_main+7)& (0+255),b
  2624  0008CC  0E20               	movlw	low _i2c_w_reg
  2625  0008CE  0100               	movlb	0	; () banked
  2626  0008D0  25A6               	addwf	(??_main+6)& (0+255),w,b
  2627  0008D2  6EE1               	movwf	fsr1l,c
  2628  0008D4  0E01               	movlw	high _i2c_w_reg
  2629  0008D6  0100               	movlb	0	; () banked
  2630  0008D8  21A7               	addwfc	(??_main+7)& (0+255),w,b
  2631  0008DA  6EE2               	movwf	fsr1h,c
  2632  0008DC  50DE               	movf	postinc2,w,c
  2633  0008DE  18E6               	xorwf	postinc1,w,c
  2634  0008E0  B4D8               	btfsc	status,2,c
  2635  0008E2  D002               	goto	u4390
  2636  0008E4  0E01               	movlw	1
  2637  0008E6  D001               	goto	u4392
  2638  0008E8                     u4390:
  2639  0008E8  0E00               	movlw	0
  2640  0008EA                     u4392:
  2641  0008EA  0100               	movlb	0	; () banked
  2642  0008EC  11A4               	iorwf	(??_main+4)& (0+255),w,b
  2643  0008EE  A0E8               	btfss	wreg,0,c
  2644  0008F0  D003               	goto	l4501
  2645                           
  2646                           ; BSR set to: 0
  2647                           ;main.c: 185: credentials_accepted = 0;
  2648  0008F2  0E00               	movlw	0
  2649  0008F4  0100               	movlb	0	; () banked
  2650  0008F6  6FDD               	movwf	_credentials_accepted& (0+255),b	;volatile
  2651  0008F8                     l4501:
  2652                           
  2653                           ; BSR set to: 0
  2654  0008F8  0101               	movlb	1	; () banked
  2655  0008FA  4B76               	infsnz	main@i_774& (0+255),f,b
  2656  0008FC  2B77               	incf	(main@i_774+1)& (0+255),f,b
  2657  0008FE  D7A6               	goto	l4493
  2658  000900                     l4505:
  2659                           
  2660                           ; BSR set to: 1
  2661                           ;main.c: 186: }
  2662                           ;main.c: 187: if (credentials_accepted == 0)
  2663  000900  0100               	movlb	0	; () banked
  2664  000902  51DD               	movf	_credentials_accepted& (0+255),w,b	;volatile
  2665  000904  A4D8               	btfss	status,2,c
  2666  000906  D034               	goto	l4523
  2667                           
  2668                           ; BSR set to: 0
  2669                           ;main.c: 188: {
  2670                           ;main.c: 189: Lcd_Set_Cursor(1,1);
  2671  000908  0E01               	movlw	1
  2672  00090A  6E1A               	movwf	Lcd_Set_Cursor@b,c
  2673  00090C  0E01               	movlw	1
  2674  00090E  EC92  F00D         	call	_Lcd_Set_Cursor
  2675                           
  2676                           ;main.c: 190: Lcd_Write_String("[Access  Denied]");
  2677  000912  0E9E               	movlw	low STR_7
  2678  000914  6E1C               	movwf	Lcd_Write_String@a,c
  2679  000916  0E7C               	movlw	high STR_7
  2680  000918  6E1D               	movwf	Lcd_Write_String@a+1,c
  2681  00091A  EC08  F00D         	call	_Lcd_Write_String	;wreg free
  2682                           
  2683                           ;main.c: 191: Lcd_Set_Cursor(2,1);
  2684  00091E  0E01               	movlw	1
  2685  000920  6E1A               	movwf	Lcd_Set_Cursor@b,c
  2686  000922  0E02               	movlw	2
  2687  000924  EC92  F00D         	call	_Lcd_Set_Cursor
  2688                           
  2689                           ;main.c: 192: Lcd_Write_String("    [ Retry ]   ");
  2690  000928  0ED2               	movlw	low STR_8
  2691  00092A  6E1C               	movwf	Lcd_Write_String@a,c
  2692  00092C  0E7B               	movlw	high STR_8
  2693  00092E  6E1D               	movwf	Lcd_Write_String@a+1,c
  2694  000930  EC08  F00D         	call	_Lcd_Write_String	;wreg free
  2695                           
  2696                           ;main.c: 193: for (int i = 0; i < 200; i++)
  2697  000934  0E00               	movlw	0
  2698  000936  0101               	movlb	1	; () banked
  2699  000938  6F69               	movwf	(main@i_777+1)& (0+255),b
  2700  00093A  0E00               	movlw	0
  2701  00093C  6F68               	movwf	main@i_777& (0+255),b
  2702  00093E                     l4515:
  2703                           
  2704                           ; BSR set to: 1
  2705  00093E  0101               	movlb	1	; () banked
  2706  000940  BF69               	btfsc	(main@i_777+1)& (0+255),7,b
  2707  000942  D008               	goto	l4519
  2708  000944  0101               	movlb	1	; () banked
  2709  000946  5169               	movf	(main@i_777+1)& (0+255),w,b
  2710  000948  E113               	bnz	l4523
  2711  00094A  0EC8               	movlw	200
  2712  00094C  0101               	movlb	1	; () banked
  2713  00094E  5D68               	subwf	main@i_777& (0+255),w,b
  2714  000950  B0D8               	btfsc	status,0,c
  2715  000952  D00E               	goto	l4523
  2716  000954                     l4519:
  2717                           
  2718                           ; BSR set to: 1
  2719                           ;main.c: 194: {
  2720                           ;main.c: 195: _delay((unsigned long)((20)*(16000000/4000.0)));
  2721  000954  0E68               	movlw	104
  2722  000956  0100               	movlb	0	; () banked
  2723  000958  6FA0               	movwf	??_main& (0+255),b
  2724  00095A  0EE4               	movlw	228
  2725  00095C                     u4567:
  2726  00095C  2EE8               	decfsz	wreg,f,c
  2727  00095E  D7FE               	goto	u4567
  2728  000960  2FA0               	decfsz	??_main& (0+255),f,b
  2729  000962  D7FC               	goto	u4567
  2730  000964  F000 F000          	nop2	
  2731  000968  0101               	movlb	1	; () banked
  2732  00096A  4B68               	infsnz	main@i_777& (0+255),f,b
  2733  00096C  2B69               	incf	(main@i_777+1)& (0+255),f,b
  2734  00096E  D7E7               	goto	l4515
  2735  000970                     l4523:
  2736  000970  0100               	movlb	0	; () banked
  2737  000972  51DD               	movf	_credentials_accepted& (0+255),w,b	;volatile
  2738  000974  B4D8               	btfsc	status,2,c
  2739  000976  EF94  F000         	goto	l4301
  2740                           
  2741                           ; BSR set to: 0
  2742                           ;main.c: 196: }
  2743                           ;main.c: 197: }
  2744                           ;main.c: 198: }
  2745                           ;main.c: 202: Lcd_Set_Cursor(1,1);
  2746                           
  2747                           ; BSR set to: 0
  2748  00097A  0E01               	movlw	1
  2749  00097C  6E1A               	movwf	Lcd_Set_Cursor@b,c
  2750  00097E  0E01               	movlw	1
  2751  000980  EC92  F00D         	call	_Lcd_Set_Cursor
  2752                           
  2753                           ;main.c: 203: unsigned char is_leading_zero = 1, n_c = 0;
  2754  000984  0E01               	movlw	1
  2755  000986  0101               	movlb	1	; () banked
  2756  000988  6F6A               	movwf	main@is_leading_zero& (0+255),b
  2757                           
  2758                           ; BSR set to: 1
  2759  00098A  0E00               	movlw	0
  2760  00098C  0101               	movlb	1	; () banked
  2761  00098E  6F65               	movwf	main@n_c& (0+255),b
  2762                           
  2763                           ; BSR set to: 1
  2764                           ;main.c: 204: for (int i = 0; i < 9; i++)
  2765  000990  0E00               	movlw	0
  2766  000992  0101               	movlb	1	; () banked
  2767  000994  6F71               	movwf	(main@i_780+1)& (0+255),b
  2768  000996  0E00               	movlw	0
  2769  000998  6F70               	movwf	main@i_780& (0+255),b
  2770  00099A                     l4533:
  2771                           
  2772                           ; BSR set to: 1
  2773  00099A  0101               	movlb	1	; () banked
  2774  00099C  BF71               	btfsc	(main@i_780+1)& (0+255),7,b
  2775  00099E  D008               	goto	l4537
  2776  0009A0  0101               	movlb	1	; () banked
  2777  0009A2  5171               	movf	(main@i_780+1)& (0+255),w,b
  2778  0009A4  E12A               	bnz	l4555
  2779  0009A6  0E09               	movlw	9
  2780  0009A8  0101               	movlb	1	; () banked
  2781  0009AA  5D70               	subwf	main@i_780& (0+255),w,b
  2782  0009AC  B0D8               	btfsc	status,0,c
  2783  0009AE  D025               	goto	l4555
  2784  0009B0                     l4537:
  2785                           
  2786                           ; BSR set to: 1
  2787                           ;main.c: 205: {
  2788                           ;main.c: 206: if ((current_user[i] == '0')&&(is_leading_zero))
  2789  0009B0  0ED3               	movlw	low _current_user
  2790  0009B2  0101               	movlb	1	; () banked
  2791  0009B4  2570               	addwf	main@i_780& (0+255),w,b
  2792  0009B6  6ED9               	movwf	fsr2l,c
  2793  0009B8  0E00               	movlw	high _current_user
  2794  0009BA  0101               	movlb	1	; () banked
  2795  0009BC  2171               	addwfc	(main@i_780+1)& (0+255),w,b
  2796  0009BE  6EDA               	movwf	fsr2h,c
  2797  0009C0  0E30               	movlw	48
  2798  0009C2  18DE               	xorwf	postinc2,w,c
  2799  0009C4  A4D8               	btfss	status,2,c
  2800  0009C6  D005               	goto	l4545
  2801                           
  2802                           ; BSR set to: 1
  2803  0009C8  0101               	movlb	1	; () banked
  2804  0009CA  516A               	movf	main@is_leading_zero& (0+255),w,b
  2805  0009CC  0101               	movlb	1	; () banked
  2806  0009CE  A4D8               	btfss	status,2,c
  2807  0009D0  D010               	goto	l4551
  2808  0009D2                     l4545:
  2809                           
  2810                           ; BSR set to: 1
  2811                           ;main.c: 208: else
  2812                           ;main.c: 209: {
  2813                           ;main.c: 210: is_leading_zero = 0;
  2814  0009D2  0E00               	movlw	0
  2815  0009D4  0101               	movlb	1	; () banked
  2816  0009D6  6F6A               	movwf	main@is_leading_zero& (0+255),b
  2817                           
  2818                           ; BSR set to: 1
  2819                           ;main.c: 211: n_c++;
  2820  0009D8  0101               	movlb	1	; () banked
  2821  0009DA  2B65               	incf	main@n_c& (0+255),f,b
  2822                           
  2823                           ; BSR set to: 1
  2824                           ;main.c: 212: Lcd_Write_Char(current_user[i]);
  2825  0009DC  0ED3               	movlw	low _current_user
  2826  0009DE  0101               	movlb	1	; () banked
  2827  0009E0  2570               	addwf	main@i_780& (0+255),w,b
  2828  0009E2  6ED9               	movwf	fsr2l,c
  2829  0009E4  0E00               	movlw	high _current_user
  2830  0009E6  0101               	movlb	1	; () banked
  2831  0009E8  2171               	addwfc	(main@i_780+1)& (0+255),w,b
  2832  0009EA  6EDA               	movwf	fsr2h,c
  2833  0009EC  50DF               	movf	indf2,w,c
  2834  0009EE  ECE2  F00D         	call	_Lcd_Write_Char
  2835  0009F2                     l4551:
  2836  0009F2  0101               	movlb	1	; () banked
  2837  0009F4  4B70               	infsnz	main@i_780& (0+255),f,b
  2838  0009F6  2B71               	incf	(main@i_780+1)& (0+255),f,b
  2839  0009F8  D7D0               	goto	l4533
  2840  0009FA                     l4555:
  2841                           
  2842                           ; BSR set to: 1
  2843                           ;main.c: 213: }
  2844                           ;main.c: 214: }
  2845                           ;main.c: 215: for (int i = 0; i < 13 - n_c; i++)
  2846  0009FA  0E00               	movlw	0
  2847  0009FC  0101               	movlb	1	; () banked
  2848  0009FE  6F64               	movwf	(main@i_781+1)& (0+255),b
  2849  000A00  0E00               	movlw	0
  2850  000A02  6F63               	movwf	main@i_781& (0+255),b
  2851  000A04  D006               	goto	l4561
  2852  000A06                     l4557:
  2853                           
  2854                           ;main.c: 216: Lcd_Write_Char(' ');
  2855  000A06  0E20               	movlw	32
  2856  000A08  ECE2  F00D         	call	_Lcd_Write_Char
  2857  000A0C  0101               	movlb	1	; () banked
  2858  000A0E  4B63               	infsnz	main@i_781& (0+255),f,b
  2859  000A10  2B64               	incf	(main@i_781+1)& (0+255),f,b
  2860  000A12                     l4561:
  2861                           
  2862                           ; BSR set to: 1
  2863  000A12  0101               	movlb	1	; () banked
  2864  000A14  5165               	movf	main@n_c& (0+255),w,b
  2865  000A16  0100               	movlb	0	; () banked
  2866  000A18  6FA0               	movwf	??_main& (0+255),b
  2867  000A1A  6BA1               	clrf	(??_main+1)& (0+255),b
  2868  000A1C  0100               	movlb	0	; () banked
  2869  000A1E  1FA0               	comf	??_main& (0+255),f,b
  2870  000A20  1FA1               	comf	(??_main+1)& (0+255),f,b
  2871  000A22  4BA0               	infsnz	??_main& (0+255),f,b
  2872  000A24  2BA1               	incf	(??_main+1)& (0+255),f,b
  2873  000A26  0E0D               	movlw	13
  2874  000A28  0100               	movlb	0	; () banked
  2875  000A2A  27A0               	addwf	??_main& (0+255),f,b
  2876  000A2C  0E00               	movlw	0
  2877  000A2E  23A1               	addwfc	(??_main+1)& (0+255),f,b
  2878  000A30  0100               	movlb	0	; () banked
  2879  000A32  51A0               	movf	??_main& (0+255),w,b
  2880  000A34  0101               	movlb	1	; () banked
  2881  000A36  5D63               	subwf	main@i_781& (0+255),w,b
  2882  000A38  0101               	movlb	1	; () banked
  2883  000A3A  5164               	movf	(main@i_781+1)& (0+255),w,b
  2884  000A3C  0A80               	xorlw	128
  2885  000A3E  0100               	movlb	0	; () banked
  2886  000A40  6FA2               	movwf	(??_main+2)& (0+255),b
  2887  000A42  0100               	movlb	0	; () banked
  2888  000A44  51A1               	movf	(??_main+1)& (0+255),w,b
  2889  000A46  0A80               	xorlw	128
  2890  000A48  0100               	movlb	0	; () banked
  2891  000A4A  59A2               	subwfb	(??_main+2)& (0+255),w,b
  2892  000A4C  A0D8               	btfss	status,0,c
  2893  000A4E  D7DB               	goto	l4557
  2894                           
  2895                           ; BSR set to: 0
  2896                           ;main.c: 217: Lcd_Set_Cursor(1,14);
  2897                           
  2898                           ; BSR set to: 0
  2899  000A50  0E0E               	movlw	14
  2900  000A52  6E1A               	movwf	Lcd_Set_Cursor@b,c
  2901  000A54  0E01               	movlw	1
  2902  000A56  EC92  F00D         	call	_Lcd_Set_Cursor
  2903                           
  2904                           ;main.c: 218: unsigned char a, digits[] = {' '};
  2905  000A5A  C0C9  F17A         	movff	main@F3690,main@digits
  2906                           
  2907                           ;main.c: 219: a = I2C_ADDR - 0x0F;
  2908  000A5E  0100               	movlb	0	; () banked
  2909  000A60  51DE               	movf	_I2C_ADDR& (0+255),w,b
  2910  000A62  0FF1               	addlw	241
  2911  000A64  0101               	movlb	1	; () banked
  2912  000A66  6F6B               	movwf	main@a& (0+255),b
  2913                           
  2914                           ; BSR set to: 1
  2915                           ;main.c: 220: digits[0] = (a / 100);
  2916  000A68  C16B  F018         	movff	main@a,___awdiv@dividend
  2917  000A6C  6A19               	clrf	___awdiv@dividend+1,c
  2918  000A6E  0E00               	movlw	0
  2919  000A70  6E1B               	movwf	___awdiv@divisor+1,c
  2920  000A72  0E64               	movlw	100
  2921  000A74  6E1A               	movwf	___awdiv@divisor,c
  2922  000A76  EC4B  F00C         	call	___awdiv	;wreg free
  2923  000A7A  5018               	movf	?___awdiv,w,c
  2924  000A7C  0101               	movlb	1	; () banked
  2925  000A7E  6F7A               	movwf	main@digits& (0+255),b
  2926                           
  2927                           ; BSR set to: 1
  2928                           ;main.c: 221: digits[1] = (((a-(digits[0]*100))) / 10);
  2929  000A80  0101               	movlb	1	; () banked
  2930  000A82  517A               	movf	main@digits& (0+255),w,b
  2931  000A84  0D64               	mullw	100
  2932  000A86  1EF3               	comf	prodl,f,c
  2933  000A88  1EF4               	comf	prodh,f,c
  2934  000A8A  4AF3               	infsnz	prodl,f,c
  2935  000A8C  2AF4               	incf	prodh,f,c
  2936  000A8E  0101               	movlb	1	; () banked
  2937  000A90  516B               	movf	main@a& (0+255),w,b
  2938  000A92  24F3               	addwf	prodl,w,c
  2939  000A94  6E18               	movwf	___awdiv@dividend,c
  2940  000A96  0E00               	movlw	0
  2941  000A98  20F4               	addwfc	prodh,w,c
  2942  000A9A  6E19               	movwf	___awdiv@dividend+1,c
  2943  000A9C  0E00               	movlw	0
  2944  000A9E  6E1B               	movwf	___awdiv@divisor+1,c
  2945  000AA0  0E0A               	movlw	10
  2946  000AA2  6E1A               	movwf	___awdiv@divisor,c
  2947  000AA4  EC4B  F00C         	call	___awdiv	;wreg free
  2948  000AA8  5018               	movf	?___awdiv,w,c
  2949  000AAA  0101               	movlb	1	; () banked
  2950  000AAC  6F7B               	movwf	(main@digits+1)& (0+255),b
  2951                           
  2952                           ; BSR set to: 1
  2953                           ;main.c: 222: digits[2] = (a - (digits[0]*100+digits[1]*10));
  2954  000AAE  0101               	movlb	1	; () banked
  2955  000AB0  517B               	movf	(main@digits+1)& (0+255),w,b
  2956  000AB2  0D0A               	mullw	10
  2957  000AB4  CFF3 F0A0          	movff	prodl,??_main
  2958  000AB8  0101               	movlb	1	; () banked
  2959  000ABA  517A               	movf	main@digits& (0+255),w,b
  2960  000ABC  0D64               	mullw	100
  2961  000ABE  50F3               	movf	prodl,w,c
  2962  000AC0  0100               	movlb	0	; () banked
  2963  000AC2  25A0               	addwf	??_main& (0+255),w,b
  2964  000AC4  0800               	sublw	0
  2965  000AC6  0101               	movlb	1	; () banked
  2966  000AC8  256B               	addwf	main@a& (0+255),w,b
  2967  000ACA  0101               	movlb	1	; () banked
  2968  000ACC  6F7C               	movwf	(main@digits+2)& (0+255),b
  2969                           
  2970                           ; BSR set to: 1
  2971                           ;main.c: 223: is_leading_zero = 1;
  2972  000ACE  0E01               	movlw	1
  2973  000AD0  0101               	movlb	1	; () banked
  2974  000AD2  6F6A               	movwf	main@is_leading_zero& (0+255),b
  2975                           
  2976                           ; BSR set to: 1
  2977                           ;main.c: 224: for (int i = 0; i < 3; i++)
  2978  000AD4  0E00               	movlw	0
  2979  000AD6  0101               	movlb	1	; () banked
  2980  000AD8  6F79               	movwf	(main@i_785+1)& (0+255),b
  2981  000ADA  0E00               	movlw	0
  2982  000ADC  6F78               	movwf	main@i_785& (0+255),b
  2983  000ADE                     l4579:
  2984                           
  2985                           ; BSR set to: 1
  2986  000ADE  0101               	movlb	1	; () banked
  2987  000AE0  BF79               	btfsc	(main@i_785+1)& (0+255),7,b
  2988  000AE2  D008               	goto	l4583
  2989  000AE4  0101               	movlb	1	; () banked
  2990  000AE6  5179               	movf	(main@i_785+1)& (0+255),w,b
  2991  000AE8  E14A               	bnz	l4601
  2992  000AEA  0E03               	movlw	3
  2993  000AEC  0101               	movlb	1	; () banked
  2994  000AEE  5D78               	subwf	main@i_785& (0+255),w,b
  2995  000AF0  B0D8               	btfsc	status,0,c
  2996  000AF2  D045               	goto	l4601
  2997  000AF4                     l4583:
  2998                           
  2999                           ; BSR set to: 1
  3000                           ;main.c: 225: {
  3001                           ;main.c: 226: digits[i] = c[digits[i]];
  3002  000AF4  0E7A               	movlw	low main@digits
  3003  000AF6  0101               	movlb	1	; () banked
  3004  000AF8  2578               	addwf	main@i_785& (0+255),w,b
  3005  000AFA  6ED9               	movwf	fsr2l,c
  3006  000AFC  0E01               	movlw	high main@digits
  3007  000AFE  0101               	movlb	1	; () banked
  3008  000B00  2179               	addwfc	(main@i_785+1)& (0+255),w,b
  3009  000B02  6EDA               	movwf	fsr2h,c
  3010  000B04  50DF               	movf	indf2,w,c
  3011  000B06  0100               	movlb	0	; () banked
  3012  000B08  6FA0               	movwf	??_main& (0+255),b
  3013  000B0A  0100               	movlb	0	; () banked
  3014  000B0C  51A0               	movf	??_main& (0+255),w,b
  3015  000B0E  0D01               	mullw	1
  3016  000B10  0EA9               	movlw	low _c
  3017  000B12  24F3               	addwf	prodl,w,c
  3018  000B14  6ED9               	movwf	fsr2l,c
  3019  000B16  0E00               	movlw	high _c
  3020  000B18  20F4               	addwfc	prodh,w,c
  3021  000B1A  6EDA               	movwf	fsr2h,c
  3022  000B1C  0E7A               	movlw	low main@digits
  3023  000B1E  0101               	movlb	1	; () banked
  3024  000B20  2578               	addwf	main@i_785& (0+255),w,b
  3025  000B22  6EE1               	movwf	fsr1l,c
  3026  000B24  0E01               	movlw	high main@digits
  3027  000B26  0101               	movlb	1	; () banked
  3028  000B28  2179               	addwfc	(main@i_785+1)& (0+255),w,b
  3029  000B2A  6EE2               	movwf	fsr1h,c
  3030  000B2C  CFDF FFE7          	movff	indf2,indf1
  3031                           
  3032                           ; BSR set to: 1
  3033                           ;main.c: 227: if ((digits[i] == '0')&&(is_leading_zero))
  3034  000B30  0E7A               	movlw	low main@digits
  3035  000B32  0101               	movlb	1	; () banked
  3036  000B34  2578               	addwf	main@i_785& (0+255),w,b
  3037  000B36  6ED9               	movwf	fsr2l,c
  3038  000B38  0E01               	movlw	high main@digits
  3039  000B3A  0101               	movlb	1	; () banked
  3040  000B3C  2179               	addwfc	(main@i_785+1)& (0+255),w,b
  3041  000B3E  6EDA               	movwf	fsr2h,c
  3042  000B40  0E30               	movlw	48
  3043  000B42  18DE               	xorwf	postinc2,w,c
  3044  000B44  A4D8               	btfss	status,2,c
  3045  000B46  D009               	goto	l4593
  3046                           
  3047                           ; BSR set to: 1
  3048  000B48  0101               	movlb	1	; () banked
  3049  000B4A  516A               	movf	main@is_leading_zero& (0+255),w,b
  3050  000B4C  0101               	movlb	1	; () banked
  3051  000B4E  B4D8               	btfsc	status,2,c
  3052  000B50  D004               	goto	l4593
  3053                           
  3054                           ; BSR set to: 1
  3055                           ;main.c: 228: {
  3056                           ;main.c: 229: Lcd_Write_Char(' ');
  3057  000B52  0E20               	movlw	32
  3058  000B54  ECE2  F00D         	call	_Lcd_Write_Char
  3059                           
  3060                           ;main.c: 231: }
  3061                           
  3062                           ;main.c: 230: continue;
  3063  000B58  D00E               	goto	l4597
  3064  000B5A                     l4593:
  3065                           
  3066                           ;main.c: 232: else
  3067                           ;main.c: 233: {
  3068                           ;main.c: 234: is_leading_zero = 0;
  3069  000B5A  0E00               	movlw	0
  3070  000B5C  0101               	movlb	1	; () banked
  3071  000B5E  6F6A               	movwf	main@is_leading_zero& (0+255),b
  3072                           
  3073                           ; BSR set to: 1
  3074                           ;main.c: 235: Lcd_Write_Char(digits[i]);
  3075  000B60  0E7A               	movlw	low main@digits
  3076  000B62  0101               	movlb	1	; () banked
  3077  000B64  2578               	addwf	main@i_785& (0+255),w,b
  3078  000B66  6ED9               	movwf	fsr2l,c
  3079  000B68  0E01               	movlw	high main@digits
  3080  000B6A  0101               	movlb	1	; () banked
  3081  000B6C  2179               	addwfc	(main@i_785+1)& (0+255),w,b
  3082  000B6E  6EDA               	movwf	fsr2h,c
  3083  000B70  50DF               	movf	indf2,w,c
  3084  000B72  ECE2  F00D         	call	_Lcd_Write_Char
  3085  000B76                     l4597:
  3086  000B76  0101               	movlb	1	; () banked
  3087  000B78  4B78               	infsnz	main@i_785& (0+255),f,b
  3088  000B7A  2B79               	incf	(main@i_785+1)& (0+255),f,b
  3089  000B7C  D7B0               	goto	l4579
  3090  000B7E                     l4601:
  3091                           
  3092                           ; BSR set to: 1
  3093                           ;main.c: 236: }
  3094                           ;main.c: 237: }
  3095                           ;main.c: 238: Lcd_Set_Cursor(2,1);
  3096  000B7E  0E01               	movlw	1
  3097  000B80  6E1A               	movwf	Lcd_Set_Cursor@b,c
  3098  000B82  0E02               	movlw	2
  3099  000B84  EC92  F00D         	call	_Lcd_Set_Cursor
  3100                           
  3101                           ;main.c: 239: Lcd_Write_String("                ");
  3102  000B88  0E7D               	movlw	low STR_2
  3103  000B8A  6E1C               	movwf	Lcd_Write_String@a,c
  3104  000B8C  0E7B               	movlw	high STR_2
  3105  000B8E  6E1D               	movwf	Lcd_Write_String@a+1,c
  3106  000B90  EC08  F00D         	call	_Lcd_Write_String	;wreg free
  3107  000B94  D6ED               	goto	l4523
  3108  000B96                     __end_of_main:
  3109                           	opt stack 0
  3110                           tblptru	equ	0xFF8
  3111                           tblptrh	equ	0xFF7
  3112                           tblptrl	equ	0xFF6
  3113                           tablat	equ	0xFF5
  3114                           prodh	equ	0xFF4
  3115                           prodl	equ	0xFF3
  3116                           postinc0	equ	0xFEE
  3117                           wreg	equ	0xFE8
  3118                           indf1	equ	0xFE7
  3119                           postinc1	equ	0xFE6
  3120                           postdec1	equ	0xFE5
  3121                           plusw1	equ	0xFE3
  3122                           fsr1h	equ	0xFE2
  3123                           fsr1l	equ	0xFE1
  3124                           indf2	equ	0xFDF
  3125                           postinc2	equ	0xFDE
  3126                           plusw2	equ	0xFDB
  3127                           fsr2h	equ	0xFDA
  3128                           fsr2l	equ	0xFD9
  3129                           status	equ	0xFD8
  3130                           
  3131 ;; *************** function _start_routine *****************
  3132 ;; Defined at:
  3133 ;;		line 385 in file "main.c"
  3134 ;; Parameters:    Size  Location     Type
  3135 ;;		None
  3136 ;; Auto vars:     Size  Location     Type
  3137 ;;  i               2   42[BANK0 ] int 
  3138 ;;  r_password      5   14[BANK0 ] unsigned char [5]
  3139 ;;  password        4   21[BANK0 ] unsigned char [4]
  3140 ;;  n               1   47[BANK0 ] unsigned char 
  3141 ;;  k               1   28[BANK0 ] unsigned char 
  3142 ;;  i               2   50[BANK0 ] int 
  3143 ;;  i               2   40[BANK0 ] int 
  3144 ;;  i               2   38[BANK0 ] int 
  3145 ;;  i               2   36[BANK0 ] int 
  3146 ;;  i               2   48[BANK0 ] int 
  3147 ;;  i               2   57[BANK0 ] int 
  3148 ;;  x               1   60[BANK0 ] unsigned char 
  3149 ;;  b               3   44[BANK0 ] unsigned char [3]
  3150 ;;  error_msg       2   25[BANK0 ] PTR unsigned char 
  3151 ;;		 -> STR_23(17), STR_22(17), 
  3152 ;;  new_I2C_addr    1   63[BANK0 ] unsigned char 
  3153 ;;  I2C_new_ADDR    3   52[BANK0 ] unsigned char [3]
  3154 ;;  i               2   34[BANK0 ] int 
  3155 ;;  i               2   32[BANK0 ] int 
  3156 ;;  i               2   30[BANK0 ] int 
  3157 ;;  n               1   62[BANK0 ] unsigned char 
  3158 ;;  x               1   61[BANK0 ] unsigned char 
  3159 ;;  dh              1   59[BANK0 ] unsigned char 
  3160 ;;  dt              1   56[BANK0 ] unsigned char 
  3161 ;;  a               1   55[BANK0 ] unsigned char 
  3162 ;;  v               1   29[BANK0 ] unsigned char 
  3163 ;;  d1              1   27[BANK0 ] unsigned char 
  3164 ;;  l               1   20[BANK0 ] unsigned char 
  3165 ;;  h               1   19[BANK0 ] unsigned char 
  3166 ;; Return value:  Size  Location     Type
  3167 ;;                  1    wreg      void 
  3168 ;; Registers used:
  3169 ;;		wreg, fsr0l, fsr0h, fsr1l, fsr1h, fsr2l, fsr2h, status,2, status,0, tblptrl, tblptrh, tblptru, prodl, prodh, cstack
  3170 ;; Tracked objects:
  3171 ;;		On entry : 0/0
  3172 ;;		On exit  : 0/0
  3173 ;;		Unchanged: 0/0
  3174 ;; Data sizes:     COMRAM   BANK0   BANK1   BANK2   BANK3   BANK4   BANK5
  3175 ;;      Params:         0       0       0       0       0       0       0
  3176 ;;      Locals:         0      50       0       0       0       0       0
  3177 ;;      Temps:          4       0       0       0       0       0       0
  3178 ;;      Totals:         4      50       0       0       0       0       0
  3179 ;;Total ram usage:       54 bytes
  3180 ;; Hardware stack levels used:    1
  3181 ;; Hardware stack levels required when called:    6
  3182 ;; This function calls:
  3183 ;;		_Eeprom_Write_Byte
  3184 ;;		_Lcd_Clear
  3185 ;;		_Lcd_Set_Cursor
  3186 ;;		_Lcd_Write_Char
  3187 ;;		_Lcd_Write_String
  3188 ;;		___awdiv
  3189 ;;		_latch_keypad
  3190 ;;		_menu_progress_bar
  3191 ;;		_read_keypad
  3192 ;; This function is called by:
  3193 ;;		_main
  3194 ;; This function uses a non-reentrant model
  3195 ;;
  3196                           
  3197                           	psect	text1
  3198  000B96                     __ptext1:
  3199                           	opt stack 0
  3200  000B96                     _start_routine:
  3201                           	opt stack 24
  3202                           
  3203                           ;main.c: 390: Lcd_Clear();
  3204                           
  3205                           ;incstack = 0
  3206  000B96  EC66  F00E         	call	_Lcd_Clear	;wreg free
  3207                           
  3208                           ;main.c: 391: Lcd_Set_Cursor(1, 1);
  3209  000B9A  0E01               	movlw	1
  3210  000B9C  6E1A               	movwf	Lcd_Set_Cursor@b,c
  3211  000B9E  0E01               	movlw	1
  3212  000BA0  EC92  F00D         	call	_Lcd_Set_Cursor
  3213                           
  3214                           ;main.c: 392: Lcd_Write_String("   [ Aditum ]   ");
  3215  000BA4  0EC1               	movlw	low STR_10
  3216  000BA6  6E1C               	movwf	Lcd_Write_String@a,c
  3217  000BA8  0E7B               	movlw	high STR_10
  3218  000BAA  6E1D               	movwf	Lcd_Write_String@a+1,c
  3219  000BAC  EC08  F00D         	call	_Lcd_Write_String	;wreg free
  3220                           
  3221                           ;main.c: 393: for (int i = 0; i < 20; i++)
  3222  000BB0  0E00               	movlw	0
  3223  000BB2  0100               	movlb	0	; () banked
  3224  000BB4  6F7F               	movwf	(start_routine@i+1)& (0+255),b
  3225  000BB6  0E00               	movlw	0
  3226  000BB8  6F7E               	movwf	start_routine@i& (0+255),b
  3227  000BBA                     l3841:
  3228                           
  3229                           ; BSR set to: 0
  3230  000BBA  0100               	movlb	0	; () banked
  3231  000BBC  BF7F               	btfsc	(start_routine@i+1)& (0+255),7,b
  3232  000BBE  D008               	goto	l3845
  3233  000BC0  0100               	movlb	0	; () banked
  3234  000BC2  517F               	movf	(start_routine@i+1)& (0+255),w,b
  3235  000BC4  E112               	bnz	l3849
  3236  000BC6  0E14               	movlw	20
  3237  000BC8  0100               	movlb	0	; () banked
  3238  000BCA  5D7E               	subwf	start_routine@i& (0+255),w,b
  3239  000BCC  B0D8               	btfsc	status,0,c
  3240  000BCE  D00D               	goto	l3849
  3241  000BD0                     l3845:
  3242                           
  3243                           ; BSR set to: 0
  3244                           ;main.c: 394: _delay((unsigned long)((20)*(16000000/4000.0)));
  3245  000BD0  0E68               	movlw	104
  3246  000BD2  6E2B               	movwf	??_start_routine& (0+255),c
  3247  000BD4  0EE4               	movlw	228
  3248  000BD6                     u4577:
  3249  000BD6  2EE8               	decfsz	wreg,f,c
  3250  000BD8  D7FE               	goto	u4577
  3251  000BDA  2E2B               	decfsz	??_start_routine& (0+255),f,c
  3252  000BDC  D7FC               	goto	u4577
  3253  000BDE  F000 F000          	nop2	
  3254  000BE2  0100               	movlb	0	; () banked
  3255  000BE4  4B7E               	infsnz	start_routine@i& (0+255),f,b
  3256  000BE6  2B7F               	incf	(start_routine@i+1)& (0+255),f,b
  3257  000BE8  D7E8               	goto	l3841
  3258  000BEA                     l3849:
  3259                           
  3260                           ; BSR set to: 0
  3261                           ;main.c: 395: Lcd_Set_Cursor(2,1);
  3262  000BEA  0E01               	movlw	1
  3263  000BEC  6E1A               	movwf	Lcd_Set_Cursor@b,c
  3264  000BEE  0E02               	movlw	2
  3265  000BF0  EC92  F00D         	call	_Lcd_Set_Cursor
  3266                           
  3267                           ;main.c: 396: Lcd_Write_String("Rev ");
  3268  000BF4  0EF2               	movlw	low STR_11
  3269  000BF6  6E1C               	movwf	Lcd_Write_String@a,c
  3270  000BF8  0E7C               	movlw	high STR_11
  3271  000BFA  6E1D               	movwf	Lcd_Write_String@a+1,c
  3272  000BFC  EC08  F00D         	call	_Lcd_Write_String	;wreg free
  3273                           
  3274                           ;main.c: 397: Lcd_Write_String("1.0.0");
  3275  000C00  0EEC               	movlw	low STR_12
  3276  000C02  6E1C               	movwf	Lcd_Write_String@a,c
  3277  000C04  0E7C               	movlw	high STR_12
  3278  000C06  6E1D               	movwf	Lcd_Write_String@a+1,c
  3279  000C08  EC08  F00D         	call	_Lcd_Write_String	;wreg free
  3280                           
  3281                           ;main.c: 398: for (int i = 0; i < 50; i++)
  3282  000C0C  0E00               	movlw	0
  3283  000C0E  0100               	movlb	0	; () banked
  3284  000C10  6F81               	movwf	(start_routine@i_864+1)& (0+255),b
  3285  000C12  0E00               	movlw	0
  3286  000C14  6F80               	movwf	start_routine@i_864& (0+255),b
  3287  000C16                     l3857:
  3288                           
  3289                           ; BSR set to: 0
  3290  000C16  0100               	movlb	0	; () banked
  3291  000C18  BF81               	btfsc	(start_routine@i_864+1)& (0+255),7,b
  3292  000C1A  D008               	goto	l3861
  3293  000C1C  0100               	movlb	0	; () banked
  3294  000C1E  5181               	movf	(start_routine@i_864+1)& (0+255),w,b
  3295  000C20  E112               	bnz	l3865
  3296  000C22  0E32               	movlw	50
  3297  000C24  0100               	movlb	0	; () banked
  3298  000C26  5D80               	subwf	start_routine@i_864& (0+255),w,b
  3299  000C28  B0D8               	btfsc	status,0,c
  3300  000C2A  D00D               	goto	l3865
  3301  000C2C                     l3861:
  3302                           
  3303                           ; BSR set to: 0
  3304                           ;main.c: 399: _delay((unsigned long)((20)*(16000000/4000.0)));
  3305  000C2C  0E68               	movlw	104
  3306  000C2E  6E2B               	movwf	??_start_routine& (0+255),c
  3307  000C30  0EE4               	movlw	228
  3308  000C32                     u4587:
  3309  000C32  2EE8               	decfsz	wreg,f,c
  3310  000C34  D7FE               	goto	u4587
  3311  000C36  2E2B               	decfsz	??_start_routine& (0+255),f,c
  3312  000C38  D7FC               	goto	u4587
  3313  000C3A  F000 F000          	nop2	
  3314  000C3E  0100               	movlb	0	; () banked
  3315  000C40  4B80               	infsnz	start_routine@i_864& (0+255),f,b
  3316  000C42  2B81               	incf	(start_routine@i_864+1)& (0+255),f,b
  3317  000C44  D7E8               	goto	l3857
  3318  000C46                     l3865:
  3319                           
  3320                           ; BSR set to: 0
  3321                           ;main.c: 400: Lcd_Set_Cursor(2,1);
  3322  000C46  0E01               	movlw	1
  3323  000C48  6E1A               	movwf	Lcd_Set_Cursor@b,c
  3324  000C4A  0E02               	movlw	2
  3325  000C4C  EC92  F00D         	call	_Lcd_Set_Cursor
  3326                           
  3327                           ;main.c: 401: Lcd_Write_String("Device ID ");
  3328  000C50  0EE1               	movlw	low STR_13
  3329  000C52  6E1C               	movwf	Lcd_Write_String@a,c
  3330  000C54  0E7C               	movlw	high STR_13
  3331  000C56  6E1D               	movwf	Lcd_Write_String@a+1,c
  3332  000C58  EC08  F00D         	call	_Lcd_Write_String	;wreg free
  3333                           
  3334                           ;main.c: 402: unsigned char a, h, l, dh, dt, d1;
  3335                           ;main.c: 403: if (I2C_ADDR != 0)
  3336  000C5C  0100               	movlb	0	; () banked
  3337  000C5E  51DE               	movf	_I2C_ADDR& (0+255),w,b
  3338  000C60  B4D8               	btfsc	status,2,c
  3339  000C62  D004               	goto	l3873
  3340                           
  3341                           ; BSR set to: 0
  3342                           ;main.c: 404: a = I2C_ADDR - 0x0F;
  3343  000C64  0100               	movlb	0	; () banked
  3344  000C66  51DE               	movf	_I2C_ADDR& (0+255),w,b
  3345  000C68  0FF1               	addlw	241
  3346  000C6A  D001               	goto	L1
  3347  000C6C                     l3873:
  3348                           
  3349                           ; BSR set to: 0
  3350                           ;main.c: 405: else
  3351                           ;main.c: 406: a = 0;
  3352  000C6C  0E00               	movlw	0
  3353  000C6E                     L1:
  3354  000C6E  0100               	movlb	0	; () banked
  3355  000C70  6F97               	movwf	start_routine@a& (0+255),b
  3356                           
  3357                           ; BSR set to: 0
  3358                           ;main.c: 408: dh = (a / 100);
  3359                           
  3360                           ; BSR set to: 0
  3361  000C72  C097  F018         	movff	start_routine@a,___awdiv@dividend
  3362  000C76  6A19               	clrf	___awdiv@dividend+1,c
  3363  000C78  0E00               	movlw	0
  3364  000C7A  6E1B               	movwf	___awdiv@divisor+1,c
  3365  000C7C  0E64               	movlw	100
  3366  000C7E  6E1A               	movwf	___awdiv@divisor,c
  3367  000C80  EC4B  F00C         	call	___awdiv	;wreg free
  3368  000C84  5018               	movf	?___awdiv,w,c
  3369  000C86  0100               	movlb	0	; () banked
  3370  000C88  6F9B               	movwf	start_routine@dh& (0+255),b
  3371                           
  3372                           ; BSR set to: 0
  3373                           ;main.c: 409: dt = (a - dh*100) / 10;
  3374  000C8A  0100               	movlb	0	; () banked
  3375  000C8C  519B               	movf	start_routine@dh& (0+255),w,b
  3376  000C8E  0D64               	mullw	100
  3377  000C90  1EF3               	comf	prodl,f,c
  3378  000C92  1EF4               	comf	prodh,f,c
  3379  000C94  4AF3               	infsnz	prodl,f,c
  3380  000C96  2AF4               	incf	prodh,f,c
  3381  000C98  0100               	movlb	0	; () banked
  3382  000C9A  5197               	movf	start_routine@a& (0+255),w,b
  3383  000C9C  24F3               	addwf	prodl,w,c
  3384  000C9E  6E18               	movwf	___awdiv@dividend,c
  3385  000CA0  0E00               	movlw	0
  3386  000CA2  20F4               	addwfc	prodh,w,c
  3387  000CA4  6E19               	movwf	___awdiv@dividend+1,c
  3388  000CA6  0E00               	movlw	0
  3389  000CA8  6E1B               	movwf	___awdiv@divisor+1,c
  3390  000CAA  0E0A               	movlw	10
  3391  000CAC  6E1A               	movwf	___awdiv@divisor,c
  3392  000CAE  EC4B  F00C         	call	___awdiv	;wreg free
  3393  000CB2  5018               	movf	?___awdiv,w,c
  3394  000CB4  0100               	movlb	0	; () banked
  3395  000CB6  6F98               	movwf	start_routine@dt& (0+255),b
  3396                           
  3397                           ; BSR set to: 0
  3398                           ;main.c: 410: d1 = (a - (dh*100+dt*10));
  3399  000CB8  0100               	movlb	0	; () banked
  3400  000CBA  5198               	movf	start_routine@dt& (0+255),w,b
  3401  000CBC  0D0A               	mullw	10
  3402  000CBE  CFF3 F02B          	movff	prodl,??_start_routine
  3403  000CC2  0100               	movlb	0	; () banked
  3404  000CC4  519B               	movf	start_routine@dh& (0+255),w,b
  3405  000CC6  0D64               	mullw	100
  3406  000CC8  50F3               	movf	prodl,w,c
  3407  000CCA  242B               	addwf	??_start_routine,w,c
  3408  000CCC  0800               	sublw	0
  3409  000CCE  0100               	movlb	0	; () banked
  3410  000CD0  2597               	addwf	start_routine@a& (0+255),w,b
  3411  000CD2  0100               	movlb	0	; () banked
  3412  000CD4  6F7B               	movwf	start_routine@d1& (0+255),b
  3413                           
  3414                           ; BSR set to: 0
  3415                           ;main.c: 411: Lcd_Write_Char(c[dh]);
  3416  000CD6  0100               	movlb	0	; () banked
  3417  000CD8  519B               	movf	start_routine@dh& (0+255),w,b
  3418  000CDA  0D01               	mullw	1
  3419  000CDC  0EA9               	movlw	low _c
  3420  000CDE  24F3               	addwf	prodl,w,c
  3421  000CE0  6ED9               	movwf	fsr2l,c
  3422  000CE2  0E00               	movlw	high _c
  3423  000CE4  20F4               	addwfc	prodh,w,c
  3424  000CE6  6EDA               	movwf	fsr2h,c
  3425  000CE8  50DF               	movf	indf2,w,c
  3426  000CEA  ECE2  F00D         	call	_Lcd_Write_Char
  3427                           
  3428                           ;main.c: 412: Lcd_Write_Char(c[dt]);
  3429  000CEE  0100               	movlb	0	; () banked
  3430  000CF0  5198               	movf	start_routine@dt& (0+255),w,b
  3431  000CF2  0D01               	mullw	1
  3432  000CF4  0EA9               	movlw	low _c
  3433  000CF6  24F3               	addwf	prodl,w,c
  3434  000CF8  6ED9               	movwf	fsr2l,c
  3435  000CFA  0E00               	movlw	high _c
  3436  000CFC  20F4               	addwfc	prodh,w,c
  3437  000CFE  6EDA               	movwf	fsr2h,c
  3438  000D00  50DF               	movf	indf2,w,c
  3439  000D02  ECE2  F00D         	call	_Lcd_Write_Char
  3440                           
  3441                           ;main.c: 413: Lcd_Write_Char(c[d1]);
  3442  000D06  0100               	movlb	0	; () banked
  3443  000D08  517B               	movf	start_routine@d1& (0+255),w,b
  3444  000D0A  0D01               	mullw	1
  3445  000D0C  0EA9               	movlw	low _c
  3446  000D0E  24F3               	addwf	prodl,w,c
  3447  000D10  6ED9               	movwf	fsr2l,c
  3448  000D12  0E00               	movlw	high _c
  3449  000D14  20F4               	addwfc	prodh,w,c
  3450  000D16  6EDA               	movwf	fsr2h,c
  3451  000D18  50DF               	movf	indf2,w,c
  3452  000D1A  ECE2  F00D         	call	_Lcd_Write_Char
  3453                           
  3454                           ;main.c: 414: Lcd_Write_Char('|');
  3455  000D1E  0E7C               	movlw	124
  3456  000D20  ECE2  F00D         	call	_Lcd_Write_Char
  3457                           
  3458                           ;main.c: 415: Lcd_Write_Char(hx[I2C_ADDR/16]);
  3459  000D24  C0DE  F018         	movff	_I2C_ADDR,___awdiv@dividend
  3460  000D28  6A19               	clrf	___awdiv@dividend+1,c
  3461  000D2A  0E00               	movlw	0
  3462  000D2C  6E1B               	movwf	___awdiv@divisor+1,c
  3463  000D2E  0E10               	movlw	16
  3464  000D30  6E1A               	movwf	___awdiv@divisor,c
  3465  000D32  EC4B  F00C         	call	___awdiv	;wreg free
  3466  000D36  0E40               	movlw	low _hx
  3467  000D38  2418               	addwf	?___awdiv,w,c
  3468  000D3A  6ED9               	movwf	fsr2l,c
  3469  000D3C  0E01               	movlw	high _hx
  3470  000D3E  2019               	addwfc	?___awdiv+1,w,c
  3471  000D40  6EDA               	movwf	fsr2h,c
  3472  000D42  50DF               	movf	indf2,w,c
  3473  000D44  ECE2  F00D         	call	_Lcd_Write_Char
  3474                           
  3475                           ;main.c: 416: Lcd_Write_Char(hx[I2C_ADDR - (I2C_ADDR/16)*16]);
  3476  000D48  C0DE  F018         	movff	_I2C_ADDR,___awdiv@dividend
  3477  000D4C  6A19               	clrf	___awdiv@dividend+1,c
  3478  000D4E  0E00               	movlw	0
  3479  000D50  6E1B               	movwf	___awdiv@divisor+1,c
  3480  000D52  0E10               	movlw	16
  3481  000D54  6E1A               	movwf	___awdiv@divisor,c
  3482  000D56  EC4B  F00C         	call	___awdiv	;wreg free
  3483  000D5A  3A18               	swapf	?___awdiv,f,c
  3484  000D5C  3A19               	swapf	?___awdiv+1,f,c
  3485  000D5E  0EF0               	movlw	240
  3486  000D60  1619               	andwf	?___awdiv+1,f,c
  3487  000D62  5018               	movf	?___awdiv,w,c
  3488  000D64  0B0F               	andlw	15
  3489  000D66  1219               	iorwf	?___awdiv+1,f,c
  3490  000D68  0EF0               	movlw	240
  3491  000D6A  1618               	andwf	?___awdiv,f,c
  3492  000D6C  1E18               	comf	?___awdiv,f,c
  3493  000D6E  1E19               	comf	?___awdiv+1,f,c
  3494  000D70  4A18               	infsnz	?___awdiv,f,c
  3495  000D72  2A19               	incf	?___awdiv+1,f,c
  3496  000D74  0100               	movlb	0	; () banked
  3497  000D76  51DE               	movf	_I2C_ADDR& (0+255),w,b
  3498  000D78  6E2B               	movwf	??_start_routine& (0+255),c
  3499  000D7A  6A2C               	clrf	(??_start_routine+1)& (0+255),c
  3500  000D7C  5018               	movf	?___awdiv,w,c
  3501  000D7E  262B               	addwf	??_start_routine,f,c
  3502  000D80  5019               	movf	?___awdiv+1,w,c
  3503  000D82  222C               	addwfc	??_start_routine+1,f,c
  3504  000D84  0E40               	movlw	low _hx
  3505  000D86  242B               	addwf	??_start_routine,w,c
  3506  000D88  6ED9               	movwf	fsr2l,c
  3507  000D8A  0E01               	movlw	high _hx
  3508  000D8C  202C               	addwfc	??_start_routine+1,w,c
  3509  000D8E  6EDA               	movwf	fsr2h,c
  3510  000D90  50DF               	movf	indf2,w,c
  3511  000D92  ECE2  F00D         	call	_Lcd_Write_Char
  3512                           
  3513                           ;main.c: 417: for (int i = 0; i < 40; i++)
  3514  000D96  0E00               	movlw	0
  3515  000D98  0100               	movlb	0	; () banked
  3516  000D9A  6F83               	movwf	(start_routine@i_872+1)& (0+255),b
  3517  000D9C  0E00               	movlw	0
  3518  000D9E  6F82               	movwf	start_routine@i_872& (0+255),b
  3519  000DA0                     l3895:
  3520                           
  3521                           ; BSR set to: 0
  3522  000DA0  0100               	movlb	0	; () banked
  3523  000DA2  BF83               	btfsc	(start_routine@i_872+1)& (0+255),7,b
  3524  000DA4  D008               	goto	l3899
  3525  000DA6  0100               	movlb	0	; () banked
  3526  000DA8  5183               	movf	(start_routine@i_872+1)& (0+255),w,b
  3527  000DAA  E112               	bnz	l3903
  3528  000DAC  0E28               	movlw	40
  3529  000DAE  0100               	movlb	0	; () banked
  3530  000DB0  5D82               	subwf	start_routine@i_872& (0+255),w,b
  3531  000DB2  B0D8               	btfsc	status,0,c
  3532  000DB4  D00D               	goto	l3903
  3533  000DB6                     l3899:
  3534                           
  3535                           ; BSR set to: 0
  3536                           ;main.c: 418: _delay((unsigned long)((20)*(16000000/4000.0)));
  3537  000DB6  0E68               	movlw	104
  3538  000DB8  6E2B               	movwf	??_start_routine& (0+255),c
  3539  000DBA  0EE4               	movlw	228
  3540  000DBC                     u4597:
  3541  000DBC  2EE8               	decfsz	wreg,f,c
  3542  000DBE  D7FE               	goto	u4597
  3543  000DC0  2E2B               	decfsz	??_start_routine& (0+255),f,c
  3544  000DC2  D7FC               	goto	u4597
  3545  000DC4  F000 F000          	nop2	
  3546  000DC8  0100               	movlb	0	; () banked
  3547  000DCA  4B82               	infsnz	start_routine@i_872& (0+255),f,b
  3548  000DCC  2B83               	incf	(start_routine@i_872+1)& (0+255),f,b
  3549  000DCE  D7E8               	goto	l3895
  3550  000DD0                     l3903:
  3551                           
  3552                           ; BSR set to: 0
  3553                           ;main.c: 419: Lcd_Clear();
  3554  000DD0  EC66  F00E         	call	_Lcd_Clear	;wreg free
  3555                           
  3556                           ;main.c: 420: Lcd_Set_Cursor(1, 1);
  3557  000DD4  0E01               	movlw	1
  3558  000DD6  6E1A               	movwf	Lcd_Set_Cursor@b,c
  3559  000DD8  0E01               	movlw	1
  3560  000DDA  EC92  F00D         	call	_Lcd_Set_Cursor
  3561                           
  3562                           ;main.c: 421: Lcd_Write_String("  [  Aditum  ]  ");
  3563  000DDE  0E05               	movlw	low STR_14
  3564  000DE0  6E1C               	movwf	Lcd_Write_String@a,c
  3565  000DE2  0E7C               	movlw	high STR_14
  3566  000DE4  6E1D               	movwf	Lcd_Write_String@a+1,c
  3567  000DE6  EC08  F00D         	call	_Lcd_Write_String	;wreg free
  3568                           
  3569                           ;main.c: 422: menu_progress_bar(700);
  3570  000DEA  0E02               	movlw	2
  3571  000DEC  6E26               	movwf	menu_progress_bar@load_time_ms+1,c
  3572  000DEE  0EBC               	movlw	188
  3573  000DF0  6E25               	movwf	menu_progress_bar@load_time_ms,c
  3574  000DF2  ECD1  F00A         	call	_menu_progress_bar	;wreg free
  3575                           
  3576                           ;main.c: 425: unsigned char x, n = 0, v;
  3577  000DF6  0E00               	movlw	0
  3578  000DF8  0100               	movlb	0	; () banked
  3579  000DFA  6F9E               	movwf	start_routine@n& (0+255),b
  3580                           
  3581                           ; BSR set to: 0
  3582                           ;main.c: 426: if (I2C_ADDR == 0x00)
  3583  000DFC  0100               	movlb	0	; () banked
  3584  000DFE  51DE               	movf	_I2C_ADDR& (0+255),w,b
  3585  000E00  A4D8               	btfss	status,2,c
  3586  000E02  D285               	goto	l4115
  3587                           
  3588                           ; BSR set to: 0
  3589                           ;main.c: 427: {
  3590                           ;main.c: 428: v = 0;
  3591  000E04  0E00               	movlw	0
  3592  000E06  0100               	movlb	0	; () banked
  3593  000E08  6F7D               	movwf	start_routine@v& (0+255),b
  3594                           
  3595                           ; BSR set to: 0
  3596                           ;main.c: 429: Lcd_Set_Cursor(1,1);
  3597  000E0A  0E01               	movlw	1
  3598  000E0C  6E1A               	movwf	Lcd_Set_Cursor@b,c
  3599  000E0E  0E01               	movlw	1
  3600  000E10  EC92  F00D         	call	_Lcd_Set_Cursor
  3601                           
  3602                           ;main.c: 430: Lcd_Write_String("Load I2C setup..");
  3603  000E14  0E5A               	movlw	low STR_15
  3604  000E16  6E1C               	movwf	Lcd_Write_String@a,c
  3605  000E18  0E7C               	movlw	high STR_15
  3606  000E1A  6E1D               	movwf	Lcd_Write_String@a+1,c
  3607  000E1C  EC08  F00D         	call	_Lcd_Write_String	;wreg free
  3608                           
  3609                           ;main.c: 431: menu_progress_bar(300);
  3610  000E20  0E01               	movlw	1
  3611  000E22  6E26               	movwf	menu_progress_bar@load_time_ms+1,c
  3612  000E24  0E2C               	movlw	44
  3613  000E26  6E25               	movwf	menu_progress_bar@load_time_ms,c
  3614  000E28  ECD1  F00A         	call	_menu_progress_bar	;wreg free
  3615                           
  3616                           ;main.c: 432: unsigned char I2C_new_ADDR[] = {'0', '0', '0'};
  3617  000E2C  C0C6  F094         	movff	start_routine@F3716,start_routine@I2C_new_ADDR
  3618  000E30  C0C7  F095         	movff	start_routine@F3716+1,start_routine@I2C_new_ADDR+1
  3619  000E34  C0C8  F096         	movff	start_routine@F3716+2,start_routine@I2C_new_ADDR+2
  3620                           
  3621                           ;main.c: 433: while (v != 1)
  3622  000E38  D265               	goto	l4113
  3623  000E3A                     l3925:
  3624                           
  3625                           ;main.c: 434: {
  3626                           ;main.c: 435: Lcd_Set_Cursor(1,1);
  3627  000E3A  0E01               	movlw	1
  3628  000E3C  6E1A               	movwf	Lcd_Set_Cursor@b,c
  3629  000E3E  0E01               	movlw	1
  3630  000E40  EC92  F00D         	call	_Lcd_Set_Cursor
  3631                           
  3632                           ;main.c: 436: Lcd_Write_String("New Machine ID: ");
  3633  000E44  0E16               	movlw	low STR_16
  3634  000E46  6E1C               	movwf	Lcd_Write_String@a,c
  3635  000E48  0E7C               	movlw	high STR_16
  3636  000E4A  6E1D               	movwf	Lcd_Write_String@a+1,c
  3637  000E4C  EC08  F00D         	call	_Lcd_Write_String	;wreg free
  3638                           
  3639                           ;main.c: 437: Lcd_Set_Cursor(2,1);
  3640  000E50  0E01               	movlw	1
  3641  000E52  6E1A               	movwf	Lcd_Set_Cursor@b,c
  3642  000E54  0E02               	movlw	2
  3643  000E56  EC92  F00D         	call	_Lcd_Set_Cursor
  3644                           
  3645                           ;main.c: 438: Lcd_Write_String("       [001-100]");
  3646  000E5A  0E8D               	movlw	low STR_17
  3647  000E5C  6E1C               	movwf	Lcd_Write_String@a,c
  3648  000E5E  0E7C               	movlw	high STR_17
  3649  000E60  6E1D               	movwf	Lcd_Write_String@a+1,c
  3650  000E62  EC08  F00D         	call	_Lcd_Write_String	;wreg free
  3651                           
  3652                           ;main.c: 439: Lcd_Set_Cursor(2,1);
  3653  000E66  0E01               	movlw	1
  3654  000E68  6E1A               	movwf	Lcd_Set_Cursor@b,c
  3655  000E6A  0E02               	movlw	2
  3656  000E6C  EC92  F00D         	call	_Lcd_Set_Cursor
  3657                           
  3658                           ;main.c: 440: Lcd_Write_Char('_');
  3659  000E70  0E5F               	movlw	95
  3660  000E72  ECE2  F00D         	call	_Lcd_Write_Char
  3661                           
  3662                           ;main.c: 441: while (n < 3)
  3663  000E76  D081               	goto	l3977
  3664  000E78                     l3935:
  3665                           
  3666                           ;main.c: 442: {
  3667                           ;main.c: 443: x = read_keypad();
  3668  000E78  ECA2  F00B         	call	_read_keypad	;wreg free
  3669  000E7C  0100               	movlb	0	; () banked
  3670  000E7E  6F9D               	movwf	start_routine@x& (0+255),b
  3671                           
  3672                           ; BSR set to: 0
  3673                           ;main.c: 444: if (x != '_')
  3674  000E80  0E5F               	movlw	95
  3675  000E82  0100               	movlb	0	; () banked
  3676  000E84  199D               	xorwf	start_routine@x& (0+255),w,b
  3677  000E86  B4D8               	btfsc	status,2,c
  3678  000E88  D078               	goto	l3977
  3679                           
  3680                           ; BSR set to: 0
  3681                           ;main.c: 445: {
  3682                           ;main.c: 446: if (((x - '#') == 0)&&(n > 0))
  3683  000E8A  0EDD               	movlw	221
  3684  000E8C  6E2B               	movwf	??_start_routine& (0+255),c
  3685  000E8E  0EFF               	movlw	255
  3686  000E90  6E2C               	movwf	(??_start_routine+1)& (0+255),c
  3687  000E92  0100               	movlb	0	; () banked
  3688  000E94  519D               	movf	start_routine@x& (0+255),w,b
  3689  000E96  6E2D               	movwf	(??_start_routine+2)& (0+255),c
  3690  000E98  6A2E               	clrf	(??_start_routine+3)& (0+255),c
  3691  000E9A  502B               	movf	??_start_routine,w,c
  3692  000E9C  262D               	addwf	??_start_routine+2,f,c
  3693  000E9E  502C               	movf	??_start_routine+1,w,c
  3694  000EA0  222E               	addwfc	??_start_routine+3,f,c
  3695  000EA2  502D               	movf	??_start_routine+2,w,c
  3696  000EA4  102E               	iorwf	??_start_routine+3,w,c
  3697  000EA6  A4D8               	btfss	status,2,c
  3698  000EA8  D02F               	goto	l3959
  3699                           
  3700                           ; BSR set to: 0
  3701  000EAA  0100               	movlb	0	; () banked
  3702  000EAC  519E               	movf	start_routine@n& (0+255),w,b
  3703  000EAE  0100               	movlb	0	; () banked
  3704  000EB0  B4D8               	btfsc	status,2,c
  3705  000EB2  D02A               	goto	l3959
  3706                           
  3707                           ; BSR set to: 0
  3708                           ;main.c: 447: {
  3709                           ;main.c: 448: I2C_new_ADDR[n] = 0;
  3710  000EB4  0100               	movlb	0	; () banked
  3711  000EB6  519E               	movf	start_routine@n& (0+255),w,b
  3712  000EB8  0D01               	mullw	1
  3713  000EBA  0E94               	movlw	low start_routine@I2C_new_ADDR
  3714  000EBC  24F3               	addwf	prodl,w,c
  3715  000EBE  6ED9               	movwf	fsr2l,c
  3716  000EC0  0E00               	movlw	high start_routine@I2C_new_ADDR
  3717  000EC2  20F4               	addwfc	prodh,w,c
  3718  000EC4  6EDA               	movwf	fsr2h,c
  3719  000EC6  0E00               	movlw	0
  3720  000EC8  6EDF               	movwf	indf2,c
  3721                           
  3722                           ; BSR set to: 0
  3723                           ;main.c: 449: Lcd_Set_Cursor(2, n);
  3724  000ECA  C09E  F01A         	movff	start_routine@n,Lcd_Set_Cursor@b
  3725  000ECE  0E02               	movlw	2
  3726  000ED0  EC92  F00D         	call	_Lcd_Set_Cursor
  3727                           
  3728                           ;main.c: 450: Lcd_Write_Char('_');
  3729  000ED4  0E5F               	movlw	95
  3730  000ED6  ECE2  F00D         	call	_Lcd_Write_Char
  3731                           
  3732                           ;main.c: 451: latch_keypad(&x);
  3733  000EDA  0E9D               	movlw	low start_routine@x
  3734  000EDC  6E18               	movwf	latch_keypad@x,c
  3735  000EDE  0E00               	movlw	high start_routine@x
  3736  000EE0  6E19               	movwf	latch_keypad@x+1,c
  3737  000EE2  ECFE  F00D         	call	_latch_keypad	;wreg free
  3738                           
  3739                           ;main.c: 452: Lcd_Set_Cursor(2, 1 + n);
  3740  000EE6  0100               	movlb	0	; () banked
  3741  000EE8  299E               	incf	start_routine@n& (0+255),w,b
  3742  000EEA  6E1A               	movwf	Lcd_Set_Cursor@b,c
  3743  000EEC  0E02               	movlw	2
  3744  000EEE  EC92  F00D         	call	_Lcd_Set_Cursor
  3745                           
  3746                           ;main.c: 453: Lcd_Write_Char(' ');
  3747  000EF2  0E20               	movlw	32
  3748  000EF4  ECE2  F00D         	call	_Lcd_Write_Char
  3749                           
  3750                           ;main.c: 454: Lcd_Set_Cursor(2, n);
  3751  000EF8  C09E  F01A         	movff	start_routine@n,Lcd_Set_Cursor@b
  3752  000EFC  0E02               	movlw	2
  3753  000EFE  EC92  F00D         	call	_Lcd_Set_Cursor
  3754                           
  3755                           ;main.c: 455: n--;
  3756  000F02  0100               	movlb	0	; () banked
  3757  000F04  079E               	decf	start_routine@n& (0+255),f,b
  3758                           
  3759                           ;main.c: 456: }
  3760  000F06  D039               	goto	l3977
  3761  000F08                     l3959:
  3762                           
  3763                           ; BSR set to: 0
  3764                           ;main.c: 457: else if ((x - '#') != 0)
  3765  000F08  0EDD               	movlw	221
  3766  000F0A  6E2B               	movwf	??_start_routine& (0+255),c
  3767  000F0C  0EFF               	movlw	255
  3768  000F0E  6E2C               	movwf	(??_start_routine+1)& (0+255),c
  3769  000F10  0100               	movlb	0	; () banked
  3770  000F12  519D               	movf	start_routine@x& (0+255),w,b
  3771  000F14  6E2D               	movwf	(??_start_routine+2)& (0+255),c
  3772  000F16  6A2E               	clrf	(??_start_routine+3)& (0+255),c
  3773  000F18  502B               	movf	??_start_routine,w,c
  3774  000F1A  262D               	addwf	??_start_routine+2,f,c
  3775  000F1C  502C               	movf	??_start_routine+1,w,c
  3776  000F1E  222E               	addwfc	??_start_routine+3,f,c
  3777  000F20  502D               	movf	??_start_routine+2,w,c
  3778  000F22  102E               	iorwf	??_start_routine+3,w,c
  3779  000F24  B4D8               	btfsc	status,2,c
  3780  000F26  D029               	goto	l3977
  3781                           
  3782                           ; BSR set to: 0
  3783                           ;main.c: 458: {
  3784                           ;main.c: 459: if ((x == '*')|(n == 3))
  3785  000F28  0E2A               	movlw	42
  3786  000F2A  0100               	movlb	0	; () banked
  3787  000F2C  199D               	xorwf	start_routine@x& (0+255),w,b
  3788  000F2E  B4D8               	btfsc	status,2,c
  3789  000F30  D028               	goto	l3979
  3790                           
  3791                           ; BSR set to: 0
  3792  000F32  0E03               	movlw	3
  3793  000F34  0100               	movlb	0	; () banked
  3794  000F36  199E               	xorwf	start_routine@n& (0+255),w,b
  3795  000F38  B4D8               	btfsc	status,2,c
  3796  000F3A  D023               	goto	l3979
  3797                           
  3798                           ; BSR set to: 0
  3799                           ;main.c: 462: }
  3800                           ;main.c: 463: I2C_new_ADDR[n] = x;
  3801                           
  3802                           ; BSR set to: 0
  3803                           
  3804                           ; BSR set to: 0
  3805                           ;main.c: 460: {
  3806                           ;main.c: 461: break;
  3807  000F3C  0100               	movlb	0	; () banked
  3808  000F3E  519E               	movf	start_routine@n& (0+255),w,b
  3809  000F40  0D01               	mullw	1
  3810  000F42  0E94               	movlw	low start_routine@I2C_new_ADDR
  3811  000F44  24F3               	addwf	prodl,w,c
  3812  000F46  6ED9               	movwf	fsr2l,c
  3813  000F48  0E00               	movlw	high start_routine@I2C_new_ADDR
  3814  000F4A  20F4               	addwfc	prodh,w,c
  3815  000F4C  6EDA               	movwf	fsr2h,c
  3816  000F4E  C09D  FFDF         	movff	start_routine@x,indf2
  3817                           
  3818                           ; BSR set to: 0
  3819                           ;main.c: 464: n++;
  3820  000F52  0100               	movlb	0	; () banked
  3821  000F54  2B9E               	incf	start_routine@n& (0+255),f,b
  3822                           
  3823                           ; BSR set to: 0
  3824                           ;main.c: 465: Lcd_Set_Cursor(2, n);
  3825  000F56  C09E  F01A         	movff	start_routine@n,Lcd_Set_Cursor@b
  3826  000F5A  0E02               	movlw	2
  3827  000F5C  EC92  F00D         	call	_Lcd_Set_Cursor
  3828                           
  3829                           ;main.c: 466: Lcd_Write_Char(x);
  3830  000F60  0100               	movlb	0	; () banked
  3831  000F62  519D               	movf	start_routine@x& (0+255),w,b
  3832  000F64  ECE2  F00D         	call	_Lcd_Write_Char
  3833                           
  3834                           ;main.c: 467: Lcd_Write_Char('_');
  3835  000F68  0E5F               	movlw	95
  3836  000F6A  ECE2  F00D         	call	_Lcd_Write_Char
  3837                           
  3838                           ;main.c: 468: latch_keypad(&x);
  3839  000F6E  0E9D               	movlw	low start_routine@x
  3840  000F70  6E18               	movwf	latch_keypad@x,c
  3841  000F72  0E00               	movlw	high start_routine@x
  3842  000F74  6E19               	movwf	latch_keypad@x+1,c
  3843  000F76  ECFE  F00D         	call	_latch_keypad	;wreg free
  3844  000F7A                     l3977:
  3845  000F7A  0E02               	movlw	2
  3846  000F7C  0100               	movlb	0	; () banked
  3847  000F7E  659E               	cpfsgt	start_routine@n& (0+255),b
  3848  000F80  D77B               	goto	l3935
  3849  000F82                     l3979:
  3850                           
  3851                           ; BSR set to: 0
  3852                           ;main.c: 469: }
  3853                           ;main.c: 470: }
  3854                           ;main.c: 471: }
  3855                           ;main.c: 473: unsigned char new_I2C_address = 0;
  3856  000F82  0E00               	movlw	0
  3857  000F84  0100               	movlb	0	; () banked
  3858  000F86  6F9F               	movwf	start_routine@new_I2C_address& (0+255),b
  3859                           
  3860                           ;main.c: 474: unsigned char b[3];
  3861                           ;main.c: 475: for (int i = 0; i < 3; i++)
  3862  000F88  0E00               	movlw	0
  3863  000F8A  0100               	movlb	0	; () banked
  3864  000F8C  6F9A               	movwf	(start_routine@i_884+1)& (0+255),b
  3865  000F8E  0E00               	movlw	0
  3866  000F90  6F99               	movwf	start_routine@i_884& (0+255),b
  3867  000F92                     l3981:
  3868                           
  3869                           ; BSR set to: 0
  3870  000F92  0100               	movlb	0	; () banked
  3871  000F94  BF9A               	btfsc	(start_routine@i_884+1)& (0+255),7,b
  3872  000F96  D008               	goto	l3985
  3873  000F98  0100               	movlb	0	; () banked
  3874  000F9A  519A               	movf	(start_routine@i_884+1)& (0+255),w,b
  3875  000F9C  E11C               	bnz	l3991
  3876  000F9E  0E03               	movlw	3
  3877  000FA0  0100               	movlb	0	; () banked
  3878  000FA2  5D99               	subwf	start_routine@i_884& (0+255),w,b
  3879  000FA4  B0D8               	btfsc	status,0,c
  3880  000FA6  D017               	goto	l3991
  3881  000FA8                     l3985:
  3882                           
  3883                           ; BSR set to: 0
  3884                           ;main.c: 476: b[i] = I2C_new_ADDR[i] - '0';
  3885  000FA8  0E8C               	movlw	low start_routine@b
  3886  000FAA  0100               	movlb	0	; () banked
  3887  000FAC  2599               	addwf	start_routine@i_884& (0+255),w,b
  3888  000FAE  6ED9               	movwf	fsr2l,c
  3889  000FB0  0E00               	movlw	high start_routine@b
  3890  000FB2  0100               	movlb	0	; () banked
  3891  000FB4  219A               	addwfc	(start_routine@i_884+1)& (0+255),w,b
  3892  000FB6  6EDA               	movwf	fsr2h,c
  3893  000FB8  0E94               	movlw	low start_routine@I2C_new_ADDR
  3894  000FBA  0100               	movlb	0	; () banked
  3895  000FBC  2599               	addwf	start_routine@i_884& (0+255),w,b
  3896  000FBE  6EE1               	movwf	fsr1l,c
  3897  000FC0  0E00               	movlw	high start_routine@I2C_new_ADDR
  3898  000FC2  0100               	movlb	0	; () banked
  3899  000FC4  219A               	addwfc	(start_routine@i_884+1)& (0+255),w,b
  3900  000FC6  6EE2               	movwf	fsr1h,c
  3901  000FC8  50E7               	movf	indf1,w,c
  3902  000FCA  0FD0               	addlw	208
  3903  000FCC  6EDF               	movwf	indf2,c
  3904                           
  3905                           ; BSR set to: 0
  3906  000FCE  0100               	movlb	0	; () banked
  3907  000FD0  4B99               	infsnz	start_routine@i_884& (0+255),f,b
  3908  000FD2  2B9A               	incf	(start_routine@i_884+1)& (0+255),f,b
  3909  000FD4  D7DE               	goto	l3981
  3910  000FD6                     l3991:
  3911                           
  3912                           ; BSR set to: 0
  3913                           ;main.c: 477: new_I2C_address += (100)*(I2C_new_ADDR[0] - '0');
  3914  000FD6  0100               	movlb	0	; () banked
  3915  000FD8  5194               	movf	start_routine@I2C_new_ADDR& (0+255),w,b
  3916  000FDA  0FD0               	addlw	208
  3917  000FDC  0D64               	mullw	100
  3918  000FDE  50F3               	movf	prodl,w,c
  3919  000FE0  0100               	movlb	0	; () banked
  3920  000FE2  279F               	addwf	start_routine@new_I2C_address& (0+255),f,b
  3921                           
  3922                           ;main.c: 478: new_I2C_address += (10)*(I2C_new_ADDR[1] - '0');
  3923  000FE4  0100               	movlb	0	; () banked
  3924  000FE6  5195               	movf	(start_routine@I2C_new_ADDR+1)& (0+255),w,b
  3925  000FE8  0FD0               	addlw	208
  3926  000FEA  0D0A               	mullw	10
  3927  000FEC  50F3               	movf	prodl,w,c
  3928  000FEE  0100               	movlb	0	; () banked
  3929  000FF0  279F               	addwf	start_routine@new_I2C_address& (0+255),f,b
  3930                           
  3931                           ; BSR set to: 0
  3932                           ;main.c: 479: new_I2C_address += (1)*(I2C_new_ADDR[2] - '0');
  3933  000FF2  0100               	movlb	0	; () banked
  3934  000FF4  5196               	movf	(start_routine@I2C_new_ADDR+2)& (0+255),w,b
  3935  000FF6  0FD0               	addlw	208
  3936  000FF8  0100               	movlb	0	; () banked
  3937  000FFA  279F               	addwf	start_routine@new_I2C_address& (0+255),f,b
  3938                           
  3939                           ; BSR set to: 0
  3940                           ;main.c: 480: Machine_ID = new_I2C_address;
  3941  000FFC  C09F  F0DF         	movff	start_routine@new_I2C_address,_Machine_ID
  3942                           
  3943                           ; BSR set to: 0
  3944                           ;main.c: 481: new_I2C_address += 0x0F;
  3945  001000  0E0F               	movlw	15
  3946  001002  0100               	movlb	0	; () banked
  3947  001004  279F               	addwf	start_routine@new_I2C_address& (0+255),f,b
  3948                           
  3949                           ; BSR set to: 0
  3950                           ;main.c: 483: char* error_msg;
  3951                           ;main.c: 484: if ( ((b[0]==0)&&((b[1]!=0)|(b[2]!=0))) | ((b[0]==1)&&(b[1]==0)&&(b[2]==0)
      +                          ) )
  3952  001006  0100               	movlb	0	; () banked
  3953  001008  518C               	movf	start_routine@b& (0+255),w,b
  3954  00100A  0100               	movlb	0	; () banked
  3955  00100C  A4D8               	btfss	status,2,c
  3956  00100E  D008               	goto	l4005
  3957                           
  3958                           ; BSR set to: 0
  3959  001010  0100               	movlb	0	; () banked
  3960  001012  518D               	movf	(start_routine@b+1)& (0+255),w,b
  3961  001014  A4D8               	btfss	status,2,c
  3962  001016  D010               	goto	l4011
  3963                           
  3964                           ; BSR set to: 0
  3965  001018  0100               	movlb	0	; () banked
  3966  00101A  518E               	movf	(start_routine@b+2)& (0+255),w,b
  3967  00101C  A4D8               	btfss	status,2,c
  3968  00101E  D00C               	goto	l4011
  3969  001020                     l4005:
  3970                           
  3971                           ; BSR set to: 0
  3972  001020  0100               	movlb	0	; () banked
  3973  001022  058C               	decf	start_routine@b& (0+255),w,b
  3974  001024  A4D8               	btfss	status,2,c
  3975  001026  D112               	goto	l4079
  3976                           
  3977                           ; BSR set to: 0
  3978  001028  0100               	movlb	0	; () banked
  3979  00102A  518D               	movf	(start_routine@b+1)& (0+255),w,b
  3980  00102C  A4D8               	btfss	status,2,c
  3981  00102E  D10E               	goto	l4079
  3982                           
  3983                           ; BSR set to: 0
  3984  001030  0100               	movlb	0	; () banked
  3985  001032  518E               	movf	(start_routine@b+2)& (0+255),w,b
  3986  001034  A4D8               	btfss	status,2,c
  3987  001036  D10A               	goto	l4079
  3988  001038                     l4011:
  3989                           
  3990                           ; BSR set to: 0
  3991                           ;main.c: 485: {
  3992                           ;main.c: 487: dh = (new_I2C_address / 100);
  3993  001038  C09F  F018         	movff	start_routine@new_I2C_address,___awdiv@dividend
  3994  00103C  6A19               	clrf	___awdiv@dividend+1,c
  3995  00103E  0E00               	movlw	0
  3996  001040  6E1B               	movwf	___awdiv@divisor+1,c
  3997  001042  0E64               	movlw	100
  3998  001044  6E1A               	movwf	___awdiv@divisor,c
  3999  001046  EC4B  F00C         	call	___awdiv	;wreg free
  4000  00104A  5018               	movf	?___awdiv,w,c
  4001  00104C  0100               	movlb	0	; () banked
  4002  00104E  6F9B               	movwf	start_routine@dh& (0+255),b
  4003                           
  4004                           ; BSR set to: 0
  4005                           ;main.c: 488: dt = (new_I2C_address - dh*100) / 10;
  4006  001050  0100               	movlb	0	; () banked
  4007  001052  519B               	movf	start_routine@dh& (0+255),w,b
  4008  001054  0D64               	mullw	100
  4009  001056  1EF3               	comf	prodl,f,c
  4010  001058  1EF4               	comf	prodh,f,c
  4011  00105A  4AF3               	infsnz	prodl,f,c
  4012  00105C  2AF4               	incf	prodh,f,c
  4013  00105E  0100               	movlb	0	; () banked
  4014  001060  519F               	movf	start_routine@new_I2C_address& (0+255),w,b
  4015  001062  24F3               	addwf	prodl,w,c
  4016  001064  6E18               	movwf	___awdiv@dividend,c
  4017  001066  0E00               	movlw	0
  4018  001068  20F4               	addwfc	prodh,w,c
  4019  00106A  6E19               	movwf	___awdiv@dividend+1,c
  4020  00106C  0E00               	movlw	0
  4021  00106E  6E1B               	movwf	___awdiv@divisor+1,c
  4022  001070  0E0A               	movlw	10
  4023  001072  6E1A               	movwf	___awdiv@divisor,c
  4024  001074  EC4B  F00C         	call	___awdiv	;wreg free
  4025  001078  5018               	movf	?___awdiv,w,c
  4026  00107A  0100               	movlb	0	; () banked
  4027  00107C  6F98               	movwf	start_routine@dt& (0+255),b
  4028                           
  4029                           ; BSR set to: 0
  4030                           ;main.c: 489: d1 = (new_I2C_address - (dh*100+dt*10));
  4031  00107E  0100               	movlb	0	; () banked
  4032  001080  5198               	movf	start_routine@dt& (0+255),w,b
  4033  001082  0D0A               	mullw	10
  4034  001084  CFF3 F02B          	movff	prodl,??_start_routine
  4035  001088  0100               	movlb	0	; () banked
  4036  00108A  519B               	movf	start_routine@dh& (0+255),w,b
  4037  00108C  0D64               	mullw	100
  4038  00108E  50F3               	movf	prodl,w,c
  4039  001090  242B               	addwf	??_start_routine,w,c
  4040  001092  0800               	sublw	0
  4041  001094  0100               	movlb	0	; () banked
  4042  001096  259F               	addwf	start_routine@new_I2C_address& (0+255),w,b
  4043  001098  0100               	movlb	0	; () banked
  4044  00109A  6F7B               	movwf	start_routine@d1& (0+255),b
  4045                           
  4046                           ; BSR set to: 0
  4047                           ;main.c: 491: h = new_I2C_address/16;
  4048  00109C  C09F  F018         	movff	start_routine@new_I2C_address,___awdiv@dividend
  4049  0010A0  6A19               	clrf	___awdiv@dividend+1,c
  4050  0010A2  0E00               	movlw	0
  4051  0010A4  6E1B               	movwf	___awdiv@divisor+1,c
  4052  0010A6  0E10               	movlw	16
  4053  0010A8  6E1A               	movwf	___awdiv@divisor,c
  4054  0010AA  EC4B  F00C         	call	___awdiv	;wreg free
  4055  0010AE  5018               	movf	?___awdiv,w,c
  4056  0010B0  0100               	movlb	0	; () banked
  4057  0010B2  6F73               	movwf	start_routine@h& (0+255),b
  4058                           
  4059                           ; BSR set to: 0
  4060                           ;main.c: 492: l = new_I2C_address - (new_I2C_address/16)*16;
  4061  0010B4  C09F  F018         	movff	start_routine@new_I2C_address,___awdiv@dividend
  4062  0010B8  6A19               	clrf	___awdiv@dividend+1,c
  4063  0010BA  0E00               	movlw	0
  4064  0010BC  6E1B               	movwf	___awdiv@divisor+1,c
  4065  0010BE  0E10               	movlw	16
  4066  0010C0  6E1A               	movwf	___awdiv@divisor,c
  4067  0010C2  EC4B  F00C         	call	___awdiv	;wreg free
  4068  0010C6  3818               	swapf	?___awdiv,w,c
  4069  0010C8  0BF0               	andlw	240
  4070  0010CA  0800               	sublw	0
  4071  0010CC  0100               	movlb	0	; () banked
  4072  0010CE  259F               	addwf	start_routine@new_I2C_address& (0+255),w,b
  4073  0010D0  0100               	movlb	0	; () banked
  4074  0010D2  6F74               	movwf	start_routine@l& (0+255),b
  4075                           
  4076                           ; BSR set to: 0
  4077                           ;main.c: 493: Lcd_Clear();
  4078  0010D4  EC66  F00E         	call	_Lcd_Clear	;wreg free
  4079                           
  4080                           ;main.c: 494: Lcd_Set_Cursor(1,1);
  4081  0010D8  0E01               	movlw	1
  4082  0010DA  6E1A               	movwf	Lcd_Set_Cursor@b,c
  4083  0010DC  0E01               	movlw	1
  4084  0010DE  EC92  F00D         	call	_Lcd_Set_Cursor
  4085                           
  4086                           ;main.c: 495: Lcd_Write_String("New Machine ID: ");
  4087  0010E2  0E16               	movlw	low STR_16
  4088  0010E4  6E1C               	movwf	Lcd_Write_String@a,c
  4089  0010E6  0E7C               	movlw	high STR_16
  4090  0010E8  6E1D               	movwf	Lcd_Write_String@a+1,c
  4091  0010EA  EC08  F00D         	call	_Lcd_Write_String	;wreg free
  4092                           
  4093                           ;main.c: 496: Lcd_Set_Cursor(2,1);
  4094  0010EE  0E01               	movlw	1
  4095  0010F0  6E1A               	movwf	Lcd_Set_Cursor@b,c
  4096  0010F2  0E02               	movlw	2
  4097  0010F4  EC92  F00D         	call	_Lcd_Set_Cursor
  4098                           
  4099                           ;main.c: 497: for (int i = 0; i < 3; i++)
  4100  0010F8  0E00               	movlw	0
  4101  0010FA  0100               	movlb	0	; () banked
  4102  0010FC  6F91               	movwf	(start_routine@i_887+1)& (0+255),b
  4103  0010FE  0E00               	movlw	0
  4104  001100  6F90               	movwf	start_routine@i_887& (0+255),b
  4105  001102                     l4031:
  4106                           
  4107                           ; BSR set to: 0
  4108  001102  0100               	movlb	0	; () banked
  4109  001104  BF91               	btfsc	(start_routine@i_887+1)& (0+255),7,b
  4110  001106  D008               	goto	l4035
  4111  001108  0100               	movlb	0	; () banked
  4112  00110A  5191               	movf	(start_routine@i_887+1)& (0+255),w,b
  4113  00110C  E114               	bnz	l4041
  4114  00110E  0E03               	movlw	3
  4115  001110  0100               	movlb	0	; () banked
  4116  001112  5D90               	subwf	start_routine@i_887& (0+255),w,b
  4117  001114  B0D8               	btfsc	status,0,c
  4118  001116  D00F               	goto	l4041
  4119  001118                     l4035:
  4120                           
  4121                           ; BSR set to: 0
  4122                           ;main.c: 498: Lcd_Write_Char(I2C_new_ADDR[i]);
  4123  001118  0E94               	movlw	low start_routine@I2C_new_ADDR
  4124  00111A  0100               	movlb	0	; () banked
  4125  00111C  2590               	addwf	start_routine@i_887& (0+255),w,b
  4126  00111E  6ED9               	movwf	fsr2l,c
  4127  001120  0E00               	movlw	high start_routine@I2C_new_ADDR
  4128  001122  0100               	movlb	0	; () banked
  4129  001124  2191               	addwfc	(start_routine@i_887+1)& (0+255),w,b
  4130  001126  6EDA               	movwf	fsr2h,c
  4131  001128  50DF               	movf	indf2,w,c
  4132  00112A  ECE2  F00D         	call	_Lcd_Write_Char
  4133  00112E  0100               	movlb	0	; () banked
  4134  001130  4B90               	infsnz	start_routine@i_887& (0+255),f,b
  4135  001132  2B91               	incf	(start_routine@i_887+1)& (0+255),f,b
  4136  001134  D7E6               	goto	l4031
  4137  001136                     l4041:
  4138                           
  4139                           ; BSR set to: 0
  4140                           ;main.c: 499: Lcd_Set_Cursor(2, 7);
  4141  001136  0E07               	movlw	7
  4142  001138  6E1A               	movwf	Lcd_Set_Cursor@b,c
  4143  00113A  0E02               	movlw	2
  4144  00113C  EC92  F00D         	call	_Lcd_Set_Cursor
  4145                           
  4146                           ;main.c: 500: Lcd_Write_String("[OK]");
  4147  001140  0EF7               	movlw	low STR_19
  4148  001142  6E1C               	movwf	Lcd_Write_String@a,c
  4149  001144  0E7C               	movlw	high STR_19
  4150  001146  6E1D               	movwf	Lcd_Write_String@a+1,c
  4151  001148  EC08  F00D         	call	_Lcd_Write_String	;wreg free
  4152                           
  4153                           ;main.c: 501: Lcd_Set_Cursor(2,14);
  4154  00114C  0E0E               	movlw	14
  4155  00114E  6E1A               	movwf	Lcd_Set_Cursor@b,c
  4156  001150  0E02               	movlw	2
  4157  001152  EC92  F00D         	call	_Lcd_Set_Cursor
  4158                           
  4159                           ;main.c: 502: Lcd_Write_String("x");
  4160  001156  0EFC               	movlw	low STR_20
  4161  001158  6E1C               	movwf	Lcd_Write_String@a,c
  4162  00115A  0E7C               	movlw	high STR_20
  4163  00115C  6E1D               	movwf	Lcd_Write_String@a+1,c
  4164  00115E  EC08  F00D         	call	_Lcd_Write_String	;wreg free
  4165                           
  4166                           ;main.c: 503: Lcd_Write_Char(hx[h]);
  4167  001162  0100               	movlb	0	; () banked
  4168  001164  5173               	movf	start_routine@h& (0+255),w,b
  4169  001166  0D01               	mullw	1
  4170  001168  0E40               	movlw	low _hx
  4171  00116A  24F3               	addwf	prodl,w,c
  4172  00116C  6ED9               	movwf	fsr2l,c
  4173  00116E  0E01               	movlw	high _hx
  4174  001170  20F4               	addwfc	prodh,w,c
  4175  001172  6EDA               	movwf	fsr2h,c
  4176  001174  50DF               	movf	indf2,w,c
  4177  001176  ECE2  F00D         	call	_Lcd_Write_Char
  4178                           
  4179                           ;main.c: 504: Lcd_Write_Char(hx[l]);
  4180  00117A  0100               	movlb	0	; () banked
  4181  00117C  5174               	movf	start_routine@l& (0+255),w,b
  4182  00117E  0D01               	mullw	1
  4183  001180  0E40               	movlw	low _hx
  4184  001182  24F3               	addwf	prodl,w,c
  4185  001184  6ED9               	movwf	fsr2l,c
  4186  001186  0E01               	movlw	high _hx
  4187  001188  20F4               	addwfc	prodh,w,c
  4188  00118A  6EDA               	movwf	fsr2h,c
  4189  00118C  50DF               	movf	indf2,w,c
  4190  00118E  ECE2  F00D         	call	_Lcd_Write_Char
  4191                           
  4192                           ;main.c: 505: for (int i = 0; i < 50; i++)
  4193  001192  0E00               	movlw	0
  4194  001194  0100               	movlb	0	; () banked
  4195  001196  6F85               	movwf	(start_routine@i_890+1)& (0+255),b
  4196  001198  0E00               	movlw	0
  4197  00119A  6F84               	movwf	start_routine@i_890& (0+255),b
  4198                           
  4199                           ; BSR set to: 0
  4200  00119C  0100               	movlb	0	; () banked
  4201  00119E  BF85               	btfsc	(start_routine@i_890+1)& (0+255),7,b
  4202  0011A0  D008               	goto	l4057
  4203  0011A2  0100               	movlb	0	; () banked
  4204  0011A4  5185               	movf	(start_routine@i_890+1)& (0+255),w,b
  4205  0011A6  E118               	bnz	l326
  4206  0011A8  0E32               	movlw	50
  4207  0011AA  0100               	movlb	0	; () banked
  4208  0011AC  5D84               	subwf	start_routine@i_890& (0+255),w,b
  4209  0011AE  B0D8               	btfsc	status,0,c
  4210  0011B0  D013               	goto	l326
  4211  0011B2                     l4057:
  4212                           
  4213                           ; BSR set to: 0
  4214                           ;main.c: 506: _delay((unsigned long)((20)*(16000000/4000.0)));
  4215  0011B2  0E68               	movlw	104
  4216  0011B4  6E2B               	movwf	??_start_routine& (0+255),c
  4217  0011B6  0EE4               	movlw	228
  4218  0011B8                     u4607:
  4219  0011B8  2EE8               	decfsz	wreg,f,c
  4220  0011BA  D7FE               	goto	u4607
  4221  0011BC  2E2B               	decfsz	??_start_routine& (0+255),f,c
  4222  0011BE  D7FC               	goto	u4607
  4223  0011C0  F000 F000          	nop2	
  4224  0011C4  0100               	movlb	0	; () banked
  4225  0011C6  4B84               	infsnz	start_routine@i_890& (0+255),f,b
  4226  0011C8  2B85               	incf	(start_routine@i_890+1)& (0+255),f,b
  4227  0011CA  0100               	movlb	0	; () banked
  4228  0011CC  BF85               	btfsc	(start_routine@i_890+1)& (0+255),7,b
  4229  0011CE  D7F1               	goto	l4057
  4230  0011D0  0100               	movlb	0	; () banked
  4231  0011D2  5185               	movf	(start_routine@i_890+1)& (0+255),w,b
  4232  0011D4  E101               	bnz	u3800
  4233  0011D6  D7E8               	goto	L2
  4234  0011D8                     u3800:
  4235  0011D8                     l326:
  4236                           
  4237                           ; BSR set to: 0
  4238                           ;main.c: 507: I2C_ADDR = new_I2C_address;
  4239  0011D8  C09F  F0DE         	movff	start_routine@new_I2C_address,_I2C_ADDR
  4240                           
  4241                           ; BSR set to: 0
  4242                           ;main.c: 508: Eeprom_Write_Byte(EEP_I2C_ADDR, I2C_ADDR);
  4243  0011DC  C0DE  F018         	movff	_I2C_ADDR,Eeprom_Write_Byte@data
  4244  0011E0  0100               	movlb	0	; () banked
  4245  0011E2  51DC               	movf	_EEP_I2C_ADDR& (0+255),w,b
  4246  0011E4  EC43  F00E         	call	_Eeprom_Write_Byte
  4247                           
  4248                           ;main.c: 509: Lcd_Clear();
  4249  0011E8  EC66  F00E         	call	_Lcd_Clear	;wreg free
  4250                           
  4251                           ;main.c: 510: Lcd_Set_Cursor(1,1);
  4252  0011EC  0E01               	movlw	1
  4253  0011EE  6E1A               	movwf	Lcd_Set_Cursor@b,c
  4254  0011F0  0E01               	movlw	1
  4255  0011F2  EC92  F00D         	call	_Lcd_Set_Cursor
  4256                           
  4257                           ;main.c: 511: Lcd_Write_String("I2C_ADDR>>EEPROM");
  4258  0011F6  0E6B               	movlw	low STR_21
  4259  0011F8  6E1C               	movwf	Lcd_Write_String@a,c
  4260  0011FA  0E7C               	movlw	high STR_21
  4261  0011FC  6E1D               	movwf	Lcd_Write_String@a+1,c
  4262  0011FE  EC08  F00D         	call	_Lcd_Write_String	;wreg free
  4263                           
  4264                           ;main.c: 518: for (int i = 0; i < 10; i++)
  4265  001202  0E00               	movlw	0
  4266  001204  0100               	movlb	0	; () banked
  4267  001206  6F87               	movwf	(start_routine@i_893+1)& (0+255),b
  4268  001208  0E00               	movlw	0
  4269  00120A  6F86               	movwf	start_routine@i_893& (0+255),b
  4270  00120C                     l4069:
  4271                           
  4272                           ; BSR set to: 0
  4273  00120C  0100               	movlb	0	; () banked
  4274  00120E  BF87               	btfsc	(start_routine@i_893+1)& (0+255),7,b
  4275  001210  D008               	goto	l4073
  4276  001212  0100               	movlb	0	; () banked
  4277  001214  5187               	movf	(start_routine@i_893+1)& (0+255),w,b
  4278  001216  E112               	bnz	l4077
  4279  001218  0E0A               	movlw	10
  4280  00121A  0100               	movlb	0	; () banked
  4281  00121C  5D86               	subwf	start_routine@i_893& (0+255),w,b
  4282  00121E  B0D8               	btfsc	status,0,c
  4283  001220  D00D               	goto	l4077
  4284  001222                     l4073:
  4285                           
  4286                           ; BSR set to: 0
  4287                           ;main.c: 519: _delay((unsigned long)((20)*(16000000/4000.0)));
  4288  001222  0E68               	movlw	104
  4289  001224  6E2B               	movwf	??_start_routine& (0+255),c
  4290  001226  0EE4               	movlw	228
  4291  001228                     u4617:
  4292  001228  2EE8               	decfsz	wreg,f,c
  4293  00122A  D7FE               	goto	u4617
  4294  00122C  2E2B               	decfsz	??_start_routine& (0+255),f,c
  4295  00122E  D7FC               	goto	u4617
  4296  001230  F000 F000          	nop2	
  4297  001234  0100               	movlb	0	; () banked
  4298  001236  4B86               	infsnz	start_routine@i_893& (0+255),f,b
  4299  001238  2B87               	incf	(start_routine@i_893+1)& (0+255),f,b
  4300  00123A  D7E8               	goto	l4069
  4301  00123C                     l4077:
  4302                           
  4303                           ; BSR set to: 0
  4304                           ;main.c: 520: menu_progress_bar(500);
  4305  00123C  0E01               	movlw	1
  4306  00123E  6E26               	movwf	menu_progress_bar@load_time_ms+1,c
  4307  001240  0EF4               	movlw	244
  4308  001242  6E25               	movwf	menu_progress_bar@load_time_ms,c
  4309  001244  ECD1  F00A         	call	_menu_progress_bar	;wreg free
  4310  001248  00FF               	reset		;# 
  4311                           
  4312                           ;main.c: 522: }
  4313  00124A  D05C               	goto	l4113
  4314  00124C                     l4079:
  4315                           
  4316                           ;main.c: 523: else
  4317                           ;main.c: 524: {
  4318                           ;main.c: 525: if (new_I2C_address == 0)
  4319  00124C  0100               	movlb	0	; () banked
  4320  00124E  519F               	movf	start_routine@new_I2C_address& (0+255),w,b
  4321  001250  0100               	movlb	0	; () banked
  4322  001252  A4D8               	btfss	status,2,c
  4323  001254  D005               	goto	l4083
  4324                           
  4325                           ; BSR set to: 0
  4326                           ;main.c: 526: error_msg = "May not be zero!";
  4327  001256  0E49               	movlw	low STR_22
  4328  001258  0100               	movlb	0	; () banked
  4329  00125A  6F79               	movwf	start_routine@error_msg& (0+255),b
  4330  00125C  0E7C               	movlw	high STR_22
  4331  00125E  D004               	goto	L3
  4332  001260                     l4083:
  4333                           
  4334                           ; BSR set to: 0
  4335                           ;main.c: 527: else
  4336                           ;main.c: 528: error_msg = "Out of bounds!  ";
  4337  001260  0EE3               	movlw	low STR_23
  4338  001262  0100               	movlb	0	; () banked
  4339  001264  6F79               	movwf	start_routine@error_msg& (0+255),b
  4340  001266  0E7B               	movlw	high STR_23
  4341  001268                     L3:
  4342  001268  0100               	movlb	0	; () banked
  4343  00126A  6F7A               	movwf	(start_routine@error_msg+1)& (0+255),b
  4344                           
  4345                           ; BSR set to: 0
  4346                           ;main.c: 529: Lcd_Set_Cursor(2,1);
  4347                           
  4348                           ; BSR set to: 0
  4349  00126C  0E01               	movlw	1
  4350  00126E  6E1A               	movwf	Lcd_Set_Cursor@b,c
  4351  001270  0E02               	movlw	2
  4352  001272  EC92  F00D         	call	_Lcd_Set_Cursor
  4353                           
  4354                           ;main.c: 530: Lcd_Write_String(error_msg);
  4355  001276  C079  F01C         	movff	start_routine@error_msg,Lcd_Write_String@a
  4356  00127A  C07A  F01D         	movff	start_routine@error_msg+1,Lcd_Write_String@a+1
  4357  00127E  EC08  F00D         	call	_Lcd_Write_String	;wreg free
  4358                           
  4359                           ;main.c: 531: for (int i = 0; i < 50; i++)
  4360  001282  0E00               	movlw	0
  4361  001284  0100               	movlb	0	; () banked
  4362  001286  6F89               	movwf	(start_routine@i_896+1)& (0+255),b
  4363  001288  0E00               	movlw	0
  4364  00128A  6F88               	movwf	start_routine@i_896& (0+255),b
  4365  00128C                     l4091:
  4366                           
  4367                           ; BSR set to: 0
  4368  00128C  0100               	movlb	0	; () banked
  4369  00128E  BF89               	btfsc	(start_routine@i_896+1)& (0+255),7,b
  4370  001290  D008               	goto	l4095
  4371  001292  0100               	movlb	0	; () banked
  4372  001294  5189               	movf	(start_routine@i_896+1)& (0+255),w,b
  4373  001296  E112               	bnz	l4099
  4374  001298  0E32               	movlw	50
  4375  00129A  0100               	movlb	0	; () banked
  4376  00129C  5D88               	subwf	start_routine@i_896& (0+255),w,b
  4377  00129E  B0D8               	btfsc	status,0,c
  4378  0012A0  D00D               	goto	l4099
  4379  0012A2                     l4095:
  4380                           
  4381                           ; BSR set to: 0
  4382                           ;main.c: 532: _delay((unsigned long)((20)*(16000000/4000.0)));
  4383  0012A2  0E68               	movlw	104
  4384  0012A4  6E2B               	movwf	??_start_routine& (0+255),c
  4385  0012A6  0EE4               	movlw	228
  4386  0012A8                     u4627:
  4387  0012A8  2EE8               	decfsz	wreg,f,c
  4388  0012AA  D7FE               	goto	u4627
  4389  0012AC  2E2B               	decfsz	??_start_routine& (0+255),f,c
  4390  0012AE  D7FC               	goto	u4627
  4391  0012B0  F000 F000          	nop2	
  4392  0012B4  0100               	movlb	0	; () banked
  4393  0012B6  4B88               	infsnz	start_routine@i_896& (0+255),f,b
  4394  0012B8  2B89               	incf	(start_routine@i_896+1)& (0+255),f,b
  4395  0012BA  D7E8               	goto	l4091
  4396  0012BC                     l4099:
  4397                           
  4398                           ; BSR set to: 0
  4399                           ;main.c: 533: for (int i = 0; i < 3; i++)
  4400  0012BC  0E00               	movlw	0
  4401  0012BE  0100               	movlb	0	; () banked
  4402  0012C0  6F93               	movwf	(start_routine@i_897+1)& (0+255),b
  4403  0012C2  0E00               	movlw	0
  4404  0012C4  6F92               	movwf	start_routine@i_897& (0+255),b
  4405  0012C6                     l4101:
  4406                           
  4407                           ; BSR set to: 0
  4408  0012C6  0100               	movlb	0	; () banked
  4409  0012C8  BF93               	btfsc	(start_routine@i_897+1)& (0+255),7,b
  4410  0012CA  D008               	goto	l4105
  4411  0012CC  0100               	movlb	0	; () banked
  4412  0012CE  5193               	movf	(start_routine@i_897+1)& (0+255),w,b
  4413  0012D0  E113               	bnz	l4111
  4414  0012D2  0E03               	movlw	3
  4415  0012D4  0100               	movlb	0	; () banked
  4416  0012D6  5D92               	subwf	start_routine@i_897& (0+255),w,b
  4417  0012D8  B0D8               	btfsc	status,0,c
  4418  0012DA  D00E               	goto	l4111
  4419  0012DC                     l4105:
  4420                           
  4421                           ; BSR set to: 0
  4422                           ;main.c: 534: I2C_new_ADDR[i] = '0';
  4423  0012DC  0E94               	movlw	low start_routine@I2C_new_ADDR
  4424  0012DE  0100               	movlb	0	; () banked
  4425  0012E0  2592               	addwf	start_routine@i_897& (0+255),w,b
  4426  0012E2  6ED9               	movwf	fsr2l,c
  4427  0012E4  0E00               	movlw	high start_routine@I2C_new_ADDR
  4428  0012E6  0100               	movlb	0	; () banked
  4429  0012E8  2193               	addwfc	(start_routine@i_897+1)& (0+255),w,b
  4430  0012EA  6EDA               	movwf	fsr2h,c
  4431  0012EC  0E30               	movlw	48
  4432  0012EE  6EDF               	movwf	indf2,c
  4433                           
  4434                           ; BSR set to: 0
  4435  0012F0  0100               	movlb	0	; () banked
  4436  0012F2  4B92               	infsnz	start_routine@i_897& (0+255),f,b
  4437  0012F4  2B93               	incf	(start_routine@i_897+1)& (0+255),f,b
  4438  0012F6  D7E7               	goto	l4101
  4439  0012F8                     l4111:
  4440                           
  4441                           ; BSR set to: 0
  4442                           ;main.c: 535: v = 0;
  4443  0012F8  0E00               	movlw	0
  4444  0012FA  0100               	movlb	0	; () banked
  4445  0012FC  6F7D               	movwf	start_routine@v& (0+255),b
  4446                           
  4447                           ;main.c: 536: n = 0;
  4448  0012FE  0E00               	movlw	0
  4449  001300  0100               	movlb	0	; () banked
  4450  001302  6F9E               	movwf	start_routine@n& (0+255),b
  4451  001304                     l4113:
  4452  001304  0100               	movlb	0	; () banked
  4453  001306  057D               	decf	start_routine@v& (0+255),w,b
  4454  001308  B4D8               	btfsc	status,2,c
  4455  00130A  0012               	return	
  4456  00130C  D596               	goto	l3925
  4457  00130E                     l4115:
  4458                           
  4459                           ; BSR set to: 0
  4460                           ;main.c: 540: else
  4461                           ;main.c: 541: {
  4462                           ;main.c: 542: v = 1;
  4463  00130E  0E01               	movlw	1
  4464  001310  0100               	movlb	0	; () banked
  4465  001312  6F7D               	movwf	start_routine@v& (0+255),b
  4466                           
  4467                           ;main.c: 543: while (!i2c_r_reg[0])
  4468  001314  D141               	goto	l4213
  4469  001316                     l4117:
  4470                           
  4471                           ;main.c: 544: {
  4472                           ;main.c: 545: Lcd_Set_Cursor(1,1);
  4473  001316  0E01               	movlw	1
  4474  001318  6E1A               	movwf	Lcd_Set_Cursor@b,c
  4475  00131A  0E01               	movlw	1
  4476  00131C  EC92  F00D         	call	_Lcd_Set_Cursor
  4477                           
  4478                           ;main.c: 546: Lcd_Write_String("I2C disconnected");
  4479  001320  0EAF               	movlw	low STR_24
  4480  001322  6E1C               	movwf	Lcd_Write_String@a,c
  4481  001324  0E7C               	movlw	high STR_24
  4482  001326  6E1D               	movwf	Lcd_Write_String@a+1,c
  4483  001328  EC08  F00D         	call	_Lcd_Write_String	;wreg free
  4484                           
  4485                           ;main.c: 547: Lcd_Set_Cursor(2,1);
  4486  00132C  0E01               	movlw	1
  4487  00132E  6E1A               	movwf	Lcd_Set_Cursor@b,c
  4488  001330  0E02               	movlw	2
  4489  001332  EC92  F00D         	call	_Lcd_Set_Cursor
  4490                           
  4491                           ;main.c: 548: Lcd_Write_String("[ * ]  to bypass");
  4492  001336  0EC0               	movlw	low STR_25
  4493  001338  6E1C               	movwf	Lcd_Write_String@a,c
  4494  00133A  0E7C               	movlw	high STR_25
  4495  00133C  6E1D               	movwf	Lcd_Write_String@a+1,c
  4496  00133E  EC08  F00D         	call	_Lcd_Write_String	;wreg free
  4497                           
  4498                           ;main.c: 549: Lcd_Set_Cursor(1,1);
  4499  001342  0E01               	movlw	1
  4500  001344  6E1A               	movwf	Lcd_Set_Cursor@b,c
  4501  001346  0E01               	movlw	1
  4502  001348  EC92  F00D         	call	_Lcd_Set_Cursor
  4503                           
  4504                           ;main.c: 550: unsigned char x = '_';
  4505  00134C  0E5F               	movlw	95
  4506  00134E  0100               	movlb	0	; () banked
  4507  001350  6F9C               	movwf	start_routine@x_900& (0+255),b
  4508                           
  4509                           ; BSR set to: 0
  4510                           ;main.c: 551: x = read_keypad();
  4511  001352  ECA2  F00B         	call	_read_keypad	;wreg free
  4512  001356  0100               	movlb	0	; () banked
  4513  001358  6F9C               	movwf	start_routine@x_900& (0+255),b
  4514                           
  4515                           ; BSR set to: 0
  4516                           ;main.c: 552: if (x != '_')
  4517  00135A  0E5F               	movlw	95
  4518  00135C  0100               	movlb	0	; () banked
  4519  00135E  199C               	xorwf	start_routine@x_900& (0+255),w,b
  4520  001360  B4D8               	btfsc	status,2,c
  4521  001362  D11A               	goto	l4213
  4522                           
  4523                           ; BSR set to: 0
  4524                           ;main.c: 553: {
  4525                           ;main.c: 554: if ((x - '*') == 0)
  4526  001364  0ED6               	movlw	214
  4527  001366  6E2B               	movwf	??_start_routine& (0+255),c
  4528  001368  0EFF               	movlw	255
  4529  00136A  6E2C               	movwf	(??_start_routine+1)& (0+255),c
  4530  00136C  0100               	movlb	0	; () banked
  4531  00136E  519C               	movf	start_routine@x_900& (0+255),w,b
  4532  001370  6E2D               	movwf	(??_start_routine+2)& (0+255),c
  4533  001372  6A2E               	clrf	(??_start_routine+3)& (0+255),c
  4534  001374  502B               	movf	??_start_routine,w,c
  4535  001376  262D               	addwf	??_start_routine+2,f,c
  4536  001378  502C               	movf	??_start_routine+1,w,c
  4537  00137A  222E               	addwfc	??_start_routine+3,f,c
  4538  00137C  502D               	movf	??_start_routine+2,w,c
  4539  00137E  102E               	iorwf	??_start_routine+3,w,c
  4540  001380  A4D8               	btfss	status,2,c
  4541  001382  D101               	goto	l4209
  4542                           
  4543                           ; BSR set to: 0
  4544                           ;main.c: 555: {
  4545                           ;main.c: 556: char r_password[] = "1234";
  4546  001384  EE20  F0BD         	lfsr	2,start_routine@F3731
  4547  001388  EE10  F06E         	lfsr	1,start_routine@r_password
  4548  00138C  0E04               	movlw	4
  4549  00138E                     u3911:
  4550  00138E  CFDB FFE3          	movff	plusw2,plusw1
  4551  001392  06E8               	decf	wreg,f,c
  4552  001394  E2FC               	bc	u3911
  4553                           
  4554                           ; BSR set to: 0
  4555                           ;main.c: 557: char password[4] = {'#','#','#','#'};
  4556  001396  C0C2  F075         	movff	start_routine@F3733,start_routine@password
  4557  00139A  C0C3  F076         	movff	start_routine@F3733+1,start_routine@password+1
  4558  00139E  C0C4  F077         	movff	start_routine@F3733+2,start_routine@password+2
  4559  0013A2  C0C5  F078         	movff	start_routine@F3733+3,start_routine@password+3
  4560                           
  4561                           ; BSR set to: 0
  4562                           ;main.c: 558: unsigned char n = 0, k = 0;
  4563  0013A6  0E00               	movlw	0
  4564  0013A8  0100               	movlb	0	; () banked
  4565  0013AA  6F8F               	movwf	start_routine@n_905& (0+255),b
  4566                           
  4567                           ; BSR set to: 0
  4568  0013AC  0E00               	movlw	0
  4569  0013AE  0100               	movlb	0	; () banked
  4570  0013B0  6F7C               	movwf	start_routine@k& (0+255),b
  4571                           
  4572                           ; BSR set to: 0
  4573                           ;main.c: 559: Lcd_Clear();
  4574  0013B2  EC66  F00E         	call	_Lcd_Clear	;wreg free
  4575                           
  4576                           ;main.c: 560: Lcd_Set_Cursor(1, 1);
  4577  0013B6  0E01               	movlw	1
  4578  0013B8  6E1A               	movwf	Lcd_Set_Cursor@b,c
  4579  0013BA  0E01               	movlw	1
  4580  0013BC  EC92  F00D         	call	_Lcd_Set_Cursor
  4581                           
  4582                           ;main.c: 561: Lcd_Write_String("Enter password: ");
  4583  0013C0  0E38               	movlw	low STR_26
  4584  0013C2  6E1C               	movwf	Lcd_Write_String@a,c
  4585  0013C4  0E7C               	movlw	high STR_26
  4586  0013C6  6E1D               	movwf	Lcd_Write_String@a+1,c
  4587  0013C8  EC08  F00D         	call	_Lcd_Write_String	;wreg free
  4588                           
  4589                           ;main.c: 562: Lcd_Set_Cursor(2,1);
  4590  0013CC  0E01               	movlw	1
  4591  0013CE  6E1A               	movwf	Lcd_Set_Cursor@b,c
  4592  0013D0  0E02               	movlw	2
  4593  0013D2  EC92  F00D         	call	_Lcd_Set_Cursor
  4594                           
  4595                           ;main.c: 563: Lcd_Write_Char('_');
  4596  0013D6  0E5F               	movlw	95
  4597  0013D8  ECE2  F00D         	call	_Lcd_Write_Char
  4598                           
  4599                           ;main.c: 564: Lcd_Set_Cursor(2,1);
  4600  0013DC  0E01               	movlw	1
  4601  0013DE  6E1A               	movwf	Lcd_Set_Cursor@b,c
  4602  0013E0  0E02               	movlw	2
  4603  0013E2  EC92  F00D         	call	_Lcd_Set_Cursor
  4604                           
  4605                           ;main.c: 565: latch_keypad(&x);
  4606  0013E6  0E9C               	movlw	low start_routine@x_900
  4607  0013E8  6E18               	movwf	latch_keypad@x,c
  4608  0013EA  0E00               	movlw	high start_routine@x_900
  4609  0013EC  6E19               	movwf	latch_keypad@x+1,c
  4610  0013EE  ECFE  F00D         	call	_latch_keypad	;wreg free
  4611                           
  4612                           ;main.c: 566: while (n != 4)
  4613  0013F2  D01F               	goto	l4167
  4614  0013F4                     l4155:
  4615                           
  4616                           ;main.c: 567: {
  4617                           ;main.c: 568: x = read_keypad();
  4618  0013F4  ECA2  F00B         	call	_read_keypad	;wreg free
  4619  0013F8  0100               	movlb	0	; () banked
  4620  0013FA  6F9C               	movwf	start_routine@x_900& (0+255),b
  4621                           
  4622                           ; BSR set to: 0
  4623                           ;main.c: 569: if (x != '_')
  4624  0013FC  0E5F               	movlw	95
  4625  0013FE  0100               	movlb	0	; () banked
  4626  001400  199C               	xorwf	start_routine@x_900& (0+255),w,b
  4627  001402  B4D8               	btfsc	status,2,c
  4628  001404  D016               	goto	l4167
  4629                           
  4630                           ; BSR set to: 0
  4631                           ;main.c: 570: {
  4632                           ;main.c: 571: password[n] = x;
  4633  001406  0100               	movlb	0	; () banked
  4634  001408  518F               	movf	start_routine@n_905& (0+255),w,b
  4635  00140A  0D01               	mullw	1
  4636  00140C  0E75               	movlw	low start_routine@password
  4637  00140E  24F3               	addwf	prodl,w,c
  4638  001410  6ED9               	movwf	fsr2l,c
  4639  001412  0E00               	movlw	high start_routine@password
  4640  001414  20F4               	addwfc	prodh,w,c
  4641  001416  6EDA               	movwf	fsr2h,c
  4642  001418  C09C  FFDF         	movff	start_routine@x_900,indf2
  4643                           
  4644                           ; BSR set to: 0
  4645                           ;main.c: 572: Lcd_Write_Char('*');
  4646  00141C  0E2A               	movlw	42
  4647  00141E  ECE2  F00D         	call	_Lcd_Write_Char
  4648                           
  4649                           ;main.c: 573: n++;
  4650  001422  0100               	movlb	0	; () banked
  4651  001424  2B8F               	incf	start_routine@n_905& (0+255),f,b
  4652                           
  4653                           ; BSR set to: 0
  4654                           ;main.c: 574: latch_keypad(&x);
  4655  001426  0E9C               	movlw	low start_routine@x_900
  4656  001428  6E18               	movwf	latch_keypad@x,c
  4657  00142A  0E00               	movlw	high start_routine@x_900
  4658  00142C  6E19               	movwf	latch_keypad@x+1,c
  4659  00142E  ECFE  F00D         	call	_latch_keypad	;wreg free
  4660  001432                     l4167:
  4661  001432  0E04               	movlw	4
  4662  001434  0100               	movlb	0	; () banked
  4663  001436  198F               	xorwf	start_routine@n_905& (0+255),w,b
  4664  001438  A4D8               	btfss	status,2,c
  4665  00143A  D7DC               	goto	l4155
  4666                           
  4667                           ; BSR set to: 0
  4668                           ;main.c: 575: }
  4669                           ;main.c: 577: }
  4670                           ;main.c: 578: n = 0;
  4671                           
  4672                           ; BSR set to: 0
  4673  00143C  0E00               	movlw	0
  4674  00143E  0100               	movlb	0	; () banked
  4675  001440  6F8F               	movwf	start_routine@n_905& (0+255),b
  4676                           
  4677                           ; BSR set to: 0
  4678                           ;main.c: 579: if ((password[0] - r_password[0]) == 0)
  4679  001442  0100               	movlb	0	; () banked
  4680  001444  516E               	movf	start_routine@r_password& (0+255),w,b
  4681  001446  6E2B               	movwf	??_start_routine& (0+255),c
  4682  001448  6A2C               	clrf	(??_start_routine+1)& (0+255),c
  4683  00144A  1E2B               	comf	??_start_routine,f,c
  4684  00144C  1E2C               	comf	??_start_routine+1,f,c
  4685  00144E  4A2B               	infsnz	??_start_routine,f,c
  4686  001450  2A2C               	incf	??_start_routine+1,f,c
  4687  001452  0100               	movlb	0	; () banked
  4688  001454  5175               	movf	start_routine@password& (0+255),w,b
  4689  001456  6E2D               	movwf	(??_start_routine+2)& (0+255),c
  4690  001458  6A2E               	clrf	(??_start_routine+3)& (0+255),c
  4691  00145A  502B               	movf	??_start_routine,w,c
  4692  00145C  262D               	addwf	??_start_routine+2,f,c
  4693  00145E  502C               	movf	??_start_routine+1,w,c
  4694  001460  222E               	addwfc	??_start_routine+3,f,c
  4695  001462  502D               	movf	??_start_routine+2,w,c
  4696  001464  102E               	iorwf	??_start_routine+3,w,c
  4697  001466  A4D8               	btfss	status,2,c
  4698  001468  D03F               	goto	l4181
  4699                           
  4700                           ; BSR set to: 0
  4701                           ;main.c: 580: if ((password[1] - r_password[1]) == 0)
  4702  00146A  0100               	movlb	0	; () banked
  4703  00146C  516F               	movf	(start_routine@r_password+1)& (0+255),w,b
  4704  00146E  6E2B               	movwf	??_start_routine& (0+255),c
  4705  001470  6A2C               	clrf	(??_start_routine+1)& (0+255),c
  4706  001472  1E2B               	comf	??_start_routine,f,c
  4707  001474  1E2C               	comf	??_start_routine+1,f,c
  4708  001476  4A2B               	infsnz	??_start_routine,f,c
  4709  001478  2A2C               	incf	??_start_routine+1,f,c
  4710  00147A  0100               	movlb	0	; () banked
  4711  00147C  5176               	movf	(start_routine@password+1)& (0+255),w,b
  4712  00147E  6E2D               	movwf	(??_start_routine+2)& (0+255),c
  4713  001480  6A2E               	clrf	(??_start_routine+3)& (0+255),c
  4714  001482  502B               	movf	??_start_routine,w,c
  4715  001484  262D               	addwf	??_start_routine+2,f,c
  4716  001486  502C               	movf	??_start_routine+1,w,c
  4717  001488  222E               	addwfc	??_start_routine+3,f,c
  4718  00148A  502D               	movf	??_start_routine+2,w,c
  4719  00148C  102E               	iorwf	??_start_routine+3,w,c
  4720  00148E  A4D8               	btfss	status,2,c
  4721  001490  D02B               	goto	l4181
  4722                           
  4723                           ; BSR set to: 0
  4724                           ;main.c: 581: if ((password[2] - r_password[2]) == 0)
  4725  001492  0100               	movlb	0	; () banked
  4726  001494  5170               	movf	(start_routine@r_password+2)& (0+255),w,b
  4727  001496  6E2B               	movwf	??_start_routine& (0+255),c
  4728  001498  6A2C               	clrf	(??_start_routine+1)& (0+255),c
  4729  00149A  1E2B               	comf	??_start_routine,f,c
  4730  00149C  1E2C               	comf	??_start_routine+1,f,c
  4731  00149E  4A2B               	infsnz	??_start_routine,f,c
  4732  0014A0  2A2C               	incf	??_start_routine+1,f,c
  4733  0014A2  0100               	movlb	0	; () banked
  4734  0014A4  5177               	movf	(start_routine@password+2)& (0+255),w,b
  4735  0014A6  6E2D               	movwf	(??_start_routine+2)& (0+255),c
  4736  0014A8  6A2E               	clrf	(??_start_routine+3)& (0+255),c
  4737  0014AA  502B               	movf	??_start_routine,w,c
  4738  0014AC  262D               	addwf	??_start_routine+2,f,c
  4739  0014AE  502C               	movf	??_start_routine+1,w,c
  4740  0014B0  222E               	addwfc	??_start_routine+3,f,c
  4741  0014B2  502D               	movf	??_start_routine+2,w,c
  4742  0014B4  102E               	iorwf	??_start_routine+3,w,c
  4743  0014B6  A4D8               	btfss	status,2,c
  4744  0014B8  D017               	goto	l4181
  4745                           
  4746                           ; BSR set to: 0
  4747                           ;main.c: 582: if ((password[3] - r_password[3]) == 0)
  4748  0014BA  0100               	movlb	0	; () banked
  4749  0014BC  5171               	movf	(start_routine@r_password+3)& (0+255),w,b
  4750  0014BE  6E2B               	movwf	??_start_routine& (0+255),c
  4751  0014C0  6A2C               	clrf	(??_start_routine+1)& (0+255),c
  4752  0014C2  1E2B               	comf	??_start_routine,f,c
  4753  0014C4  1E2C               	comf	??_start_routine+1,f,c
  4754  0014C6  4A2B               	infsnz	??_start_routine,f,c
  4755  0014C8  2A2C               	incf	??_start_routine+1,f,c
  4756  0014CA  0100               	movlb	0	; () banked
  4757  0014CC  5178               	movf	(start_routine@password+3)& (0+255),w,b
  4758  0014CE  6E2D               	movwf	(??_start_routine+2)& (0+255),c
  4759  0014D0  6A2E               	clrf	(??_start_routine+3)& (0+255),c
  4760  0014D2  502B               	movf	??_start_routine,w,c
  4761  0014D4  262D               	addwf	??_start_routine+2,f,c
  4762  0014D6  502C               	movf	??_start_routine+1,w,c
  4763  0014D8  222E               	addwfc	??_start_routine+3,f,c
  4764  0014DA  502D               	movf	??_start_routine+2,w,c
  4765  0014DC  102E               	iorwf	??_start_routine+3,w,c
  4766  0014DE  A4D8               	btfss	status,2,c
  4767  0014E0  D003               	goto	l4181
  4768                           
  4769                           ; BSR set to: 0
  4770                           ;main.c: 583: k = 1;
  4771  0014E2  0E01               	movlw	1
  4772  0014E4  0100               	movlb	0	; () banked
  4773  0014E6  6F7C               	movwf	start_routine@k& (0+255),b
  4774  0014E8                     l4181:
  4775                           
  4776                           ; BSR set to: 0
  4777                           ;main.c: 584: Lcd_Clear();
  4778  0014E8  EC66  F00E         	call	_Lcd_Clear	;wreg free
  4779                           
  4780                           ;main.c: 585: Lcd_Set_Cursor(1,1);
  4781  0014EC  0E01               	movlw	1
  4782  0014EE  6E1A               	movwf	Lcd_Set_Cursor@b,c
  4783  0014F0  0E01               	movlw	1
  4784  0014F2  EC92  F00D         	call	_Lcd_Set_Cursor
  4785                           
  4786                           ;main.c: 586: if (k)
  4787  0014F6  0100               	movlb	0	; () banked
  4788  0014F8  517C               	movf	start_routine@k& (0+255),w,b
  4789  0014FA  0100               	movlb	0	; () banked
  4790  0014FC  B4D8               	btfsc	status,2,c
  4791  0014FE  D015               	goto	l4193
  4792                           
  4793                           ; BSR set to: 0
  4794                           ;main.c: 587: {
  4795                           ;main.c: 588: Lcd_Write_String("Correct         ");
  4796  001500  0E9F               	movlw	low STR_27
  4797  001502  6E1C               	movwf	Lcd_Write_String@a,c
  4798  001504  0E7B               	movlw	high STR_27
  4799  001506  6E1D               	movwf	Lcd_Write_String@a+1,c
  4800  001508  EC08  F00D         	call	_Lcd_Write_String	;wreg free
  4801                           
  4802                           ;main.c: 589: Lcd_Set_Cursor(2,1);
  4803  00150C  0E01               	movlw	1
  4804  00150E  6E1A               	movwf	Lcd_Set_Cursor@b,c
  4805  001510  0E02               	movlw	2
  4806  001512  EC92  F00D         	call	_Lcd_Set_Cursor
  4807                           
  4808                           ;main.c: 590: Lcd_Write_String("Access Granted ");
  4809  001516  0ED1               	movlw	low STR_28
  4810  001518  6E1C               	movwf	Lcd_Write_String@a,c
  4811  00151A  0E7C               	movlw	high STR_28
  4812  00151C  6E1D               	movwf	Lcd_Write_String@a+1,c
  4813  00151E  EC08  F00D         	call	_Lcd_Write_String	;wreg free
  4814                           
  4815                           ;main.c: 591: Lcd_Write_Char(0xFF);
  4816  001522  0EFF               	movlw	255
  4817  001524  ECE2  F00D         	call	_Lcd_Write_Char
  4818                           
  4819                           ;main.c: 592: }
  4820  001528  D011               	goto	l4199
  4821  00152A                     l4193:
  4822                           
  4823                           ;main.c: 593: else
  4824                           ;main.c: 594: {
  4825                           ;main.c: 595: Lcd_Write_String("Incorrect       ");
  4826  00152A  0EB0               	movlw	low STR_29
  4827  00152C  6E1C               	movwf	Lcd_Write_String@a,c
  4828  00152E  0E7B               	movlw	high STR_29
  4829  001530  6E1D               	movwf	Lcd_Write_String@a+1,c
  4830  001532  EC08  F00D         	call	_Lcd_Write_String	;wreg free
  4831                           
  4832                           ;main.c: 596: Lcd_Set_Cursor(2,1);
  4833  001536  0E01               	movlw	1
  4834  001538  6E1A               	movwf	Lcd_Set_Cursor@b,c
  4835  00153A  0E02               	movlw	2
  4836  00153C  EC92  F00D         	call	_Lcd_Set_Cursor
  4837                           
  4838                           ;main.c: 597: Lcd_Write_String("Access Denied  X");
  4839  001540  0E7C               	movlw	low STR_30
  4840  001542  6E1C               	movwf	Lcd_Write_String@a,c
  4841  001544  0E7C               	movlw	high STR_30
  4842  001546  6E1D               	movwf	Lcd_Write_String@a+1,c
  4843  001548  EC08  F00D         	call	_Lcd_Write_String	;wreg free
  4844  00154C                     l4199:
  4845                           
  4846                           ;main.c: 598: }
  4847                           ;main.c: 599: for (int i = 0; i < 100; i++)
  4848  00154C  0E00               	movlw	0
  4849  00154E  0100               	movlb	0	; () banked
  4850  001550  6F8B               	movwf	(start_routine@i_912+1)& (0+255),b
  4851  001552  0E00               	movlw	0
  4852  001554  6F8A               	movwf	start_routine@i_912& (0+255),b
  4853  001556                     l4201:
  4854                           
  4855                           ; BSR set to: 0
  4856  001556  0100               	movlb	0	; () banked
  4857  001558  BF8B               	btfsc	(start_routine@i_912+1)& (0+255),7,b
  4858  00155A  D008               	goto	l4205
  4859  00155C  0100               	movlb	0	; () banked
  4860  00155E  518B               	movf	(start_routine@i_912+1)& (0+255),w,b
  4861  001560  E112               	bnz	l4209
  4862  001562  0E64               	movlw	100
  4863  001564  0100               	movlb	0	; () banked
  4864  001566  5D8A               	subwf	start_routine@i_912& (0+255),w,b
  4865  001568  B0D8               	btfsc	status,0,c
  4866  00156A  D00D               	goto	l4209
  4867  00156C                     l4205:
  4868                           
  4869                           ; BSR set to: 0
  4870                           ;main.c: 600: _delay((unsigned long)((20)*(16000000/4000.0)));
  4871  00156C  0E68               	movlw	104
  4872  00156E  6E2B               	movwf	??_start_routine& (0+255),c
  4873  001570  0EE4               	movlw	228
  4874  001572                     u4637:
  4875  001572  2EE8               	decfsz	wreg,f,c
  4876  001574  D7FE               	goto	u4637
  4877  001576  2E2B               	decfsz	??_start_routine& (0+255),f,c
  4878  001578  D7FC               	goto	u4637
  4879  00157A  F000 F000          	nop2	
  4880  00157E  0100               	movlb	0	; () banked
  4881  001580  4B8A               	infsnz	start_routine@i_912& (0+255),f,b
  4882  001582  2B8B               	incf	(start_routine@i_912+1)& (0+255),f,b
  4883  001584  D7E8               	goto	l4201
  4884  001586                     l4209:
  4885                           
  4886                           ; BSR set to: 0
  4887                           ;main.c: 601: }
  4888                           ;main.c: 602: latch_keypad(&x);
  4889  001586  0E9C               	movlw	low start_routine@x_900
  4890  001588  6E18               	movwf	latch_keypad@x,c
  4891  00158A  0E00               	movlw	high start_routine@x_900
  4892  00158C  6E19               	movwf	latch_keypad@x+1,c
  4893  00158E  ECFE  F00D         	call	_latch_keypad	;wreg free
  4894                           
  4895                           ;main.c: 603: x = '_';
  4896  001592  0E5F               	movlw	95
  4897  001594  0100               	movlb	0	; () banked
  4898  001596  6F9C               	movwf	start_routine@x_900& (0+255),b
  4899  001598                     l4213:
  4900                           
  4901                           ; BSR set to: 0
  4902  001598  0101               	movlb	1	; () banked
  4903  00159A  5100               	movf	_i2c_r_reg& (0+255),w,b	;volatile
  4904  00159C  A4D8               	btfss	status,2,c
  4905  00159E  0012               	return	
  4906  0015A0  D6BA               	goto	l4117
  4907  0015A2                     __end_of_start_routine:
  4908                           	opt stack 0
  4909                           tblptru	equ	0xFF8
  4910                           tblptrh	equ	0xFF7
  4911                           tblptrl	equ	0xFF6
  4912                           tablat	equ	0xFF5
  4913                           prodh	equ	0xFF4
  4914                           prodl	equ	0xFF3
  4915                           postinc0	equ	0xFEE
  4916                           wreg	equ	0xFE8
  4917                           indf1	equ	0xFE7
  4918                           postinc1	equ	0xFE6
  4919                           postdec1	equ	0xFE5
  4920                           plusw1	equ	0xFE3
  4921                           fsr1h	equ	0xFE2
  4922                           fsr1l	equ	0xFE1
  4923                           indf2	equ	0xFDF
  4924                           postinc2	equ	0xFDE
  4925                           plusw2	equ	0xFDB
  4926                           fsr2h	equ	0xFDA
  4927                           fsr2l	equ	0xFD9
  4928                           status	equ	0xFD8
  4929                           
  4930 ;; *************** function _menu_progress_bar *****************
  4931 ;; Defined at:
  4932 ;;		line 85 in file "menu.h"
  4933 ;; Parameters:    Size  Location     Type
  4934 ;;  load_time_ms    2   36[COMRAM] unsigned short 
  4935 ;; Auto vars:     Size  Location     Type
  4936 ;;  ii              2    4[BANK0 ] int 
  4937 ;;  i               2   12[BANK0 ] int 
  4938 ;;  i               2   10[BANK0 ] int 
  4939 ;;  i               2    8[BANK0 ] int 
  4940 ;;  i               2    6[BANK0 ] int 
  4941 ;;  d               4    0[BANK0 ] unsigned long 
  4942 ;; Return value:  Size  Location     Type
  4943 ;;                  1    wreg      void 
  4944 ;; Registers used:
  4945 ;;		wreg, fsr0l, fsr0h, status,2, status,0, tblptrl, tblptrh, tblptru, prodl, prodh, cstack
  4946 ;; Tracked objects:
  4947 ;;		On entry : 0/0
  4948 ;;		On exit  : 0/0
  4949 ;;		Unchanged: 0/0
  4950 ;; Data sizes:     COMRAM   BANK0   BANK1   BANK2   BANK3   BANK4   BANK5
  4951 ;;      Params:         2       0       0       0       0       0       0
  4952 ;;      Locals:         0      14       0       0       0       0       0
  4953 ;;      Temps:          4       0       0       0       0       0       0
  4954 ;;      Totals:         6      14       0       0       0       0       0
  4955 ;;Total ram usage:       20 bytes
  4956 ;; Hardware stack levels used:    1
  4957 ;; Hardware stack levels required when called:    5
  4958 ;; This function calls:
  4959 ;;		_Lcd_Clear
  4960 ;;		_Lcd_Set_Cursor
  4961 ;;		_Lcd_Write_Char
  4962 ;;		_Lcd_Write_String
  4963 ;;		___lwdiv
  4964 ;;		___wmul
  4965 ;; This function is called by:
  4966 ;;		_main
  4967 ;;		_start_routine
  4968 ;; This function uses a non-reentrant model
  4969 ;;
  4970                           
  4971                           	psect	text2
  4972  0015A2                     __ptext2:
  4973                           	opt stack 0
  4974  0015A2                     _menu_progress_bar:
  4975                           	opt stack 24
  4976                           
  4977                           ;menu.h: 87: Lcd_Set_Cursor(2,1);
  4978                           
  4979                           ;incstack = 0
  4980  0015A2  0E01               	movlw	1
  4981  0015A4  6E1A               	movwf	Lcd_Set_Cursor@b,c
  4982  0015A6  0E02               	movlw	2
  4983  0015A8  EC92  F00D         	call	_Lcd_Set_Cursor
  4984                           
  4985                           ;menu.h: 88: unsigned long d = (((load_time_ms/16)/20)*20);
  4986  0015AC  0E00               	movlw	0
  4987  0015AE  6E1B               	movwf	___lwdiv@divisor+1,c
  4988  0015B0  0E14               	movlw	20
  4989  0015B2  6E1A               	movwf	___lwdiv@divisor,c
  4990  0015B4  C025  F027         	movff	menu_progress_bar@load_time_ms,??_menu_progress_bar
  4991  0015B8  C026  F028         	movff	menu_progress_bar@load_time_ms+1,??_menu_progress_bar+1
  4992  0015BC  0E04               	movlw	4
  4993  0015BE  6E29               	movwf	(??_menu_progress_bar+2)& (0+255),c
  4994  0015C0                     u3355:
  4995  0015C0  90D8               	bcf	status,0,c
  4996  0015C2  3228               	rrcf	??_menu_progress_bar+1,f,c
  4997  0015C4  3227               	rrcf	??_menu_progress_bar,f,c
  4998  0015C6  2E29               	decfsz	(??_menu_progress_bar+2)& (0+255),f,c
  4999  0015C8  D7FB               	goto	u3355
  5000  0015CA  C027  F018         	movff	??_menu_progress_bar,___lwdiv@dividend
  5001  0015CE  C028  F019         	movff	??_menu_progress_bar+1,___lwdiv@dividend+1
  5002  0015D2  EC41  F00D         	call	___lwdiv	;wreg free
  5003  0015D6  C018  F01F         	movff	?___lwdiv,___wmul@multiplier
  5004  0015DA  C019  F020         	movff	?___lwdiv+1,___wmul@multiplier+1
  5005  0015DE  0E00               	movlw	0
  5006  0015E0  6E22               	movwf	___wmul@multiplicand+1,c
  5007  0015E2  0E14               	movlw	20
  5008  0015E4  6E21               	movwf	___wmul@multiplicand,c
  5009  0015E6  EC30  F00E         	call	___wmul	;wreg free
  5010  0015EA  C01F  F060         	movff	?___wmul,menu_progress_bar@d
  5011  0015EE  C020  F061         	movff	?___wmul+1,menu_progress_bar@d+1
  5012  0015F2  0100               	movlb	0	; () banked
  5013  0015F4  6B62               	clrf	(menu_progress_bar@d+2)& (0+255),b
  5014  0015F6  6B63               	clrf	(menu_progress_bar@d+3)& (0+255),b
  5015                           
  5016                           ; BSR set to: 0
  5017                           ;menu.h: 89: for (int i = 0; i < 16; i++)
  5018  0015F8  0E00               	movlw	0
  5019  0015FA  0100               	movlb	0	; () banked
  5020  0015FC  6F67               	movwf	(menu_progress_bar@i+1)& (0+255),b
  5021  0015FE  0E00               	movlw	0
  5022  001600  6F66               	movwf	menu_progress_bar@i& (0+255),b
  5023  001602                     l3637:
  5024                           
  5025                           ; BSR set to: 0
  5026  001602  0100               	movlb	0	; () banked
  5027  001604  BF67               	btfsc	(menu_progress_bar@i+1)& (0+255),7,b
  5028  001606  D008               	goto	l3641
  5029  001608  0100               	movlb	0	; () banked
  5030  00160A  5167               	movf	(menu_progress_bar@i+1)& (0+255),w,b
  5031  00160C  E137               	bnz	l3655
  5032  00160E  0E10               	movlw	16
  5033  001610  0100               	movlb	0	; () banked
  5034  001612  5D66               	subwf	menu_progress_bar@i& (0+255),w,b
  5035  001614  B0D8               	btfsc	status,0,c
  5036  001616  D032               	goto	l3655
  5037  001618                     l3641:
  5038                           
  5039                           ; BSR set to: 0
  5040                           ;menu.h: 90: {
  5041                           ;menu.h: 91: Lcd_Write_Char(0xFF);
  5042  001618  0EFF               	movlw	255
  5043  00161A  ECE2  F00D         	call	_Lcd_Write_Char
  5044                           
  5045                           ;menu.h: 92: for (int ii = 0; ii < d; ii+=20)
  5046  00161E  0E00               	movlw	0
  5047  001620  0100               	movlb	0	; () banked
  5048  001622  6F65               	movwf	(menu_progress_bar@ii+1)& (0+255),b
  5049  001624  0E00               	movlw	0
  5050  001626  6F64               	movwf	menu_progress_bar@ii& (0+255),b
  5051  001628  D00E               	goto	l3649
  5052  00162A                     l3645:
  5053                           
  5054                           ; BSR set to: 0
  5055                           ;menu.h: 93: _delay((unsigned long)((20)*(16000000/4000.0)));
  5056  00162A  0E68               	movlw	104
  5057  00162C  6E27               	movwf	??_menu_progress_bar& (0+255),c
  5058  00162E  0EE4               	movlw	228
  5059  001630                     u4647:
  5060  001630  2EE8               	decfsz	wreg,f,c
  5061  001632  D7FE               	goto	u4647
  5062  001634  2E27               	decfsz	??_menu_progress_bar& (0+255),f,c
  5063  001636  D7FC               	goto	u4647
  5064  001638  F000 F000          	nop2	
  5065  00163C  0E14               	movlw	20
  5066  00163E  0100               	movlb	0	; () banked
  5067  001640  2764               	addwf	menu_progress_bar@ii& (0+255),f,b
  5068  001642  0E00               	movlw	0
  5069  001644  2365               	addwfc	(menu_progress_bar@ii+1)& (0+255),f,b
  5070  001646                     l3649:
  5071                           
  5072                           ; BSR set to: 0
  5073  001646  C064  F027         	movff	menu_progress_bar@ii,??_menu_progress_bar
  5074  00164A  C065  F028         	movff	menu_progress_bar@ii+1,??_menu_progress_bar+1
  5075  00164E  0E00               	movlw	0
  5076  001650  BE28               	btfsc	(??_menu_progress_bar+1)& (0+255),7,c
  5077  001652  0EFF               	movlw	255
  5078  001654  6E29               	movwf	(??_menu_progress_bar+2)& (0+255),c
  5079  001656  6E2A               	movwf	(??_menu_progress_bar+3)& (0+255),c
  5080  001658  0100               	movlb	0	; () banked
  5081  00165A  5160               	movf	menu_progress_bar@d& (0+255),w,b
  5082  00165C  5C27               	subwf	??_menu_progress_bar,w,c
  5083  00165E  0100               	movlb	0	; () banked
  5084  001660  5161               	movf	(menu_progress_bar@d+1)& (0+255),w,b
  5085  001662  5828               	subwfb	??_menu_progress_bar+1,w,c
  5086  001664  0100               	movlb	0	; () banked
  5087  001666  5162               	movf	(menu_progress_bar@d+2)& (0+255),w,b
  5088  001668  5829               	subwfb	??_menu_progress_bar+2,w,c
  5089  00166A  0100               	movlb	0	; () banked
  5090  00166C  5163               	movf	(menu_progress_bar@d+3)& (0+255),w,b
  5091  00166E  582A               	subwfb	??_menu_progress_bar+3,w,c
  5092  001670  A0D8               	btfss	status,0,c
  5093  001672  D7DB               	goto	l3645
  5094                           
  5095                           ; BSR set to: 0
  5096                           
  5097                           ; BSR set to: 0
  5098  001674  0100               	movlb	0	; () banked
  5099  001676  4B66               	infsnz	menu_progress_bar@i& (0+255),f,b
  5100  001678  2B67               	incf	(menu_progress_bar@i+1)& (0+255),f,b
  5101  00167A  D7C3               	goto	l3637
  5102  00167C                     l3655:
  5103                           
  5104                           ; BSR set to: 0
  5105                           ;menu.h: 94: }
  5106                           ;menu.h: 95: Lcd_Set_Cursor(2,1);
  5107  00167C  0E01               	movlw	1
  5108  00167E  6E1A               	movwf	Lcd_Set_Cursor@b,c
  5109  001680  0E02               	movlw	2
  5110  001682  EC92  F00D         	call	_Lcd_Set_Cursor
  5111                           
  5112                           ;menu.h: 96: Lcd_Write_String("                ");
  5113  001686  0E7D               	movlw	low STR_2
  5114  001688  6E1C               	movwf	Lcd_Write_String@a,c
  5115  00168A  0E7B               	movlw	high STR_2
  5116  00168C  6E1D               	movwf	Lcd_Write_String@a+1,c
  5117  00168E  EC08  F00D         	call	_Lcd_Write_String	;wreg free
  5118                           
  5119                           ;menu.h: 97: for (int i = 0; i < 5; i++)
  5120  001692  0E00               	movlw	0
  5121  001694  0100               	movlb	0	; () banked
  5122  001696  6F69               	movwf	(menu_progress_bar@i_719+1)& (0+255),b
  5123  001698  0E00               	movlw	0
  5124  00169A  6F68               	movwf	menu_progress_bar@i_719& (0+255),b
  5125  00169C                     l3661:
  5126                           
  5127                           ; BSR set to: 0
  5128  00169C  0100               	movlb	0	; () banked
  5129  00169E  BF69               	btfsc	(menu_progress_bar@i_719+1)& (0+255),7,b
  5130  0016A0  D008               	goto	l3665
  5131  0016A2  0100               	movlb	0	; () banked
  5132  0016A4  5169               	movf	(menu_progress_bar@i_719+1)& (0+255),w,b
  5133  0016A6  E112               	bnz	l3669
  5134  0016A8  0E05               	movlw	5
  5135  0016AA  0100               	movlb	0	; () banked
  5136  0016AC  5D68               	subwf	menu_progress_bar@i_719& (0+255),w,b
  5137  0016AE  B0D8               	btfsc	status,0,c
  5138  0016B0  D00D               	goto	l3669
  5139  0016B2                     l3665:
  5140                           
  5141                           ; BSR set to: 0
  5142                           ;menu.h: 98: {
  5143                           ;menu.h: 99: _delay((unsigned long)((20)*(16000000/4000.0)));
  5144  0016B2  0E68               	movlw	104
  5145  0016B4  6E27               	movwf	??_menu_progress_bar& (0+255),c
  5146  0016B6  0EE4               	movlw	228
  5147  0016B8                     u4657:
  5148  0016B8  2EE8               	decfsz	wreg,f,c
  5149  0016BA  D7FE               	goto	u4657
  5150  0016BC  2E27               	decfsz	??_menu_progress_bar& (0+255),f,c
  5151  0016BE  D7FC               	goto	u4657
  5152  0016C0  F000 F000          	nop2	
  5153  0016C4  0100               	movlb	0	; () banked
  5154  0016C6  4B68               	infsnz	menu_progress_bar@i_719& (0+255),f,b
  5155  0016C8  2B69               	incf	(menu_progress_bar@i_719+1)& (0+255),f,b
  5156  0016CA  D7E8               	goto	l3661
  5157  0016CC                     l3669:
  5158                           
  5159                           ; BSR set to: 0
  5160                           ;menu.h: 100: }
  5161                           ;menu.h: 101: Lcd_Set_Cursor(2,1);
  5162  0016CC  0E01               	movlw	1
  5163  0016CE  6E1A               	movwf	Lcd_Set_Cursor@b,c
  5164  0016D0  0E02               	movlw	2
  5165  0016D2  EC92  F00D         	call	_Lcd_Set_Cursor
  5166                           
  5167                           ;menu.h: 102: for (int i = 0; i < 16; i++)
  5168  0016D6  0E00               	movlw	0
  5169  0016D8  0100               	movlb	0	; () banked
  5170  0016DA  6F6B               	movwf	(menu_progress_bar@i_720+1)& (0+255),b
  5171  0016DC  0E00               	movlw	0
  5172  0016DE  6F6A               	movwf	menu_progress_bar@i_720& (0+255),b
  5173  0016E0                     l3673:
  5174                           
  5175                           ; BSR set to: 0
  5176  0016E0  0100               	movlb	0	; () banked
  5177  0016E2  BF6B               	btfsc	(menu_progress_bar@i_720+1)& (0+255),7,b
  5178  0016E4  D008               	goto	l3677
  5179  0016E6  0100               	movlb	0	; () banked
  5180  0016E8  516B               	movf	(menu_progress_bar@i_720+1)& (0+255),w,b
  5181  0016EA  E10C               	bnz	l3683
  5182  0016EC  0E10               	movlw	16
  5183  0016EE  0100               	movlb	0	; () banked
  5184  0016F0  5D6A               	subwf	menu_progress_bar@i_720& (0+255),w,b
  5185  0016F2  B0D8               	btfsc	status,0,c
  5186  0016F4  D007               	goto	l3683
  5187  0016F6                     l3677:
  5188                           
  5189                           ; BSR set to: 0
  5190                           ;menu.h: 103: {
  5191                           ;menu.h: 104: Lcd_Write_Char(0xFF);
  5192  0016F6  0EFF               	movlw	255
  5193  0016F8  ECE2  F00D         	call	_Lcd_Write_Char
  5194  0016FC  0100               	movlb	0	; () banked
  5195  0016FE  4B6A               	infsnz	menu_progress_bar@i_720& (0+255),f,b
  5196  001700  2B6B               	incf	(menu_progress_bar@i_720+1)& (0+255),f,b
  5197  001702  D7EE               	goto	l3673
  5198  001704                     l3683:
  5199                           
  5200                           ; BSR set to: 0
  5201                           ;menu.h: 105: }
  5202                           ;menu.h: 106: for (int i = 0; i < 5; i++)
  5203  001704  0E00               	movlw	0
  5204  001706  0100               	movlb	0	; () banked
  5205  001708  6F6D               	movwf	(menu_progress_bar@i_721+1)& (0+255),b
  5206  00170A  0E00               	movlw	0
  5207  00170C  6F6C               	movwf	menu_progress_bar@i_721& (0+255),b
  5208  00170E                     l3685:
  5209                           
  5210                           ; BSR set to: 0
  5211  00170E  0100               	movlb	0	; () banked
  5212  001710  BF6D               	btfsc	(menu_progress_bar@i_721+1)& (0+255),7,b
  5213  001712  D008               	goto	l3689
  5214  001714  0100               	movlb	0	; () banked
  5215  001716  516D               	movf	(menu_progress_bar@i_721+1)& (0+255),w,b
  5216  001718  E112               	bnz	l3693
  5217  00171A  0E05               	movlw	5
  5218  00171C  0100               	movlb	0	; () banked
  5219  00171E  5D6C               	subwf	menu_progress_bar@i_721& (0+255),w,b
  5220  001720  B0D8               	btfsc	status,0,c
  5221  001722  D00D               	goto	l3693
  5222  001724                     l3689:
  5223                           
  5224                           ; BSR set to: 0
  5225                           ;menu.h: 107: {
  5226                           ;menu.h: 108: _delay((unsigned long)((20)*(16000000/4000.0)));
  5227  001724  0E68               	movlw	104
  5228  001726  6E27               	movwf	??_menu_progress_bar& (0+255),c
  5229  001728  0EE4               	movlw	228
  5230  00172A                     u4667:
  5231  00172A  2EE8               	decfsz	wreg,f,c
  5232  00172C  D7FE               	goto	u4667
  5233  00172E  2E27               	decfsz	??_menu_progress_bar& (0+255),f,c
  5234  001730  D7FC               	goto	u4667
  5235  001732  F000 F000          	nop2	
  5236  001736  0100               	movlb	0	; () banked
  5237  001738  4B6C               	infsnz	menu_progress_bar@i_721& (0+255),f,b
  5238  00173A  2B6D               	incf	(menu_progress_bar@i_721+1)& (0+255),f,b
  5239  00173C  D7E8               	goto	l3685
  5240  00173E                     l3693:
  5241                           
  5242                           ; BSR set to: 0
  5243                           ;menu.h: 109: }
  5244                           ;menu.h: 110: Lcd_Clear();
  5245  00173E  EC66  F00E         	call	_Lcd_Clear	;wreg free
  5246  001742  0012               	return		;funcret
  5247  001744                     __end_of_menu_progress_bar:
  5248                           	opt stack 0
  5249                           tblptru	equ	0xFF8
  5250                           tblptrh	equ	0xFF7
  5251                           tblptrl	equ	0xFF6
  5252                           tablat	equ	0xFF5
  5253                           prodh	equ	0xFF4
  5254                           prodl	equ	0xFF3
  5255                           postinc0	equ	0xFEE
  5256                           wreg	equ	0xFE8
  5257                           indf1	equ	0xFE7
  5258                           postinc1	equ	0xFE6
  5259                           postdec1	equ	0xFE5
  5260                           plusw1	equ	0xFE3
  5261                           fsr1h	equ	0xFE2
  5262                           fsr1l	equ	0xFE1
  5263                           indf2	equ	0xFDF
  5264                           postinc2	equ	0xFDE
  5265                           plusw2	equ	0xFDB
  5266                           fsr2h	equ	0xFDA
  5267                           fsr2l	equ	0xFD9
  5268                           status	equ	0xFD8
  5269                           
  5270 ;; *************** function ___wmul *****************
  5271 ;; Defined at:
  5272 ;;		line 15 in file "C:\Program Files (x86)\Microchip\xc8\v1.37\sources\common\Umul16.c"
  5273 ;; Parameters:    Size  Location     Type
  5274 ;;  multiplier      2   30[COMRAM] unsigned int 
  5275 ;;  multiplicand    2   32[COMRAM] unsigned int 
  5276 ;; Auto vars:     Size  Location     Type
  5277 ;;  product         2   34[COMRAM] unsigned int 
  5278 ;; Return value:  Size  Location     Type
  5279 ;;                  2   30[COMRAM] unsigned int 
  5280 ;; Registers used:
  5281 ;;		wreg, status,2, status,0, prodl, prodh
  5282 ;; Tracked objects:
  5283 ;;		On entry : 0/0
  5284 ;;		On exit  : 0/0
  5285 ;;		Unchanged: 0/0
  5286 ;; Data sizes:     COMRAM   BANK0   BANK1   BANK2   BANK3   BANK4   BANK5
  5287 ;;      Params:         4       0       0       0       0       0       0
  5288 ;;      Locals:         2       0       0       0       0       0       0
  5289 ;;      Temps:          0       0       0       0       0       0       0
  5290 ;;      Totals:         6       0       0       0       0       0       0
  5291 ;;Total ram usage:        6 bytes
  5292 ;; Hardware stack levels used:    1
  5293 ;; Hardware stack levels required when called:    2
  5294 ;; This function calls:
  5295 ;;		Nothing
  5296 ;; This function is called by:
  5297 ;;		_menu_progress_bar
  5298 ;;		_menu_seconds_to_mmss
  5299 ;; This function uses a non-reentrant model
  5300 ;;
  5301                           
  5302                           	psect	text3
  5303  001C60                     __ptext3:
  5304                           	opt stack 0
  5305  001C60                     ___wmul:
  5306                           	opt stack 26
  5307                           
  5308                           ;incstack = 0
  5309  001C60  501F               	movf	___wmul@multiplier,w,c
  5310  001C62  0221               	mulwf	___wmul@multiplicand,c
  5311  001C64  CFF3 F023          	movff	prodl,___wmul@product
  5312  001C68  CFF4 F024          	movff	prodh,___wmul@product+1
  5313  001C6C  501F               	movf	___wmul@multiplier,w,c
  5314  001C6E  0222               	mulwf	___wmul@multiplicand+1,c
  5315  001C70  50F3               	movf	prodl,w,c
  5316  001C72  2624               	addwf	___wmul@product+1,f,c
  5317  001C74  5020               	movf	___wmul@multiplier+1,w,c
  5318  001C76  0221               	mulwf	___wmul@multiplicand,c
  5319  001C78  50F3               	movf	prodl,w,c
  5320  001C7A  2624               	addwf	___wmul@product+1,f,c
  5321  001C7C  C023  F01F         	movff	___wmul@product,?___wmul
  5322  001C80  C024  F020         	movff	___wmul@product+1,?___wmul+1
  5323  001C84  0012               	return	
  5324  001C86                     __end_of___wmul:
  5325                           	opt stack 0
  5326                           tblptru	equ	0xFF8
  5327                           tblptrh	equ	0xFF7
  5328                           tblptrl	equ	0xFF6
  5329                           tablat	equ	0xFF5
  5330                           prodh	equ	0xFF4
  5331                           prodl	equ	0xFF3
  5332                           postinc0	equ	0xFEE
  5333                           wreg	equ	0xFE8
  5334                           indf1	equ	0xFE7
  5335                           postinc1	equ	0xFE6
  5336                           postdec1	equ	0xFE5
  5337                           plusw1	equ	0xFE3
  5338                           fsr1h	equ	0xFE2
  5339                           fsr1l	equ	0xFE1
  5340                           indf2	equ	0xFDF
  5341                           postinc2	equ	0xFDE
  5342                           plusw2	equ	0xFDB
  5343                           fsr2h	equ	0xFDA
  5344                           fsr2l	equ	0xFD9
  5345                           status	equ	0xFD8
  5346                           
  5347 ;; *************** function ___lwdiv *****************
  5348 ;; Defined at:
  5349 ;;		line 8 in file "C:\Program Files (x86)\Microchip\xc8\v1.37\sources\common\lwdiv.c"
  5350 ;; Parameters:    Size  Location     Type
  5351 ;;  dividend        2   23[COMRAM] unsigned int 
  5352 ;;  divisor         2   25[COMRAM] unsigned int 
  5353 ;; Auto vars:     Size  Location     Type
  5354 ;;  quotient        2   28[COMRAM] unsigned int 
  5355 ;;  counter         1   27[COMRAM] unsigned char 
  5356 ;; Return value:  Size  Location     Type
  5357 ;;                  2   23[COMRAM] unsigned int 
  5358 ;; Registers used:
  5359 ;;		wreg, status,2, status,0
  5360 ;; Tracked objects:
  5361 ;;		On entry : 0/0
  5362 ;;		On exit  : 0/0
  5363 ;;		Unchanged: 0/0
  5364 ;; Data sizes:     COMRAM   BANK0   BANK1   BANK2   BANK3   BANK4   BANK5
  5365 ;;      Params:         4       0       0       0       0       0       0
  5366 ;;      Locals:         3       0       0       0       0       0       0
  5367 ;;      Temps:          0       0       0       0       0       0       0
  5368 ;;      Totals:         7       0       0       0       0       0       0
  5369 ;;Total ram usage:        7 bytes
  5370 ;; Hardware stack levels used:    1
  5371 ;; Hardware stack levels required when called:    2
  5372 ;; This function calls:
  5373 ;;		Nothing
  5374 ;; This function is called by:
  5375 ;;		_menu_progress_bar
  5376 ;;		_menu_seconds_to_mmss
  5377 ;; This function uses a non-reentrant model
  5378 ;;
  5379                           
  5380                           	psect	text4
  5381  001A82                     __ptext4:
  5382                           	opt stack 0
  5383  001A82                     ___lwdiv:
  5384                           	opt stack 26
  5385                           
  5386                           ;incstack = 0
  5387  001A82  0E00               	movlw	0
  5388  001A84  6E1E               	movwf	___lwdiv@quotient+1,c
  5389  001A86  0E00               	movlw	0
  5390  001A88  6E1D               	movwf	___lwdiv@quotient,c
  5391  001A8A  501A               	movf	___lwdiv@divisor,w,c
  5392  001A8C  101B               	iorwf	___lwdiv@divisor+1,w,c
  5393  001A8E  B4D8               	btfsc	status,2,c
  5394  001A90  D01C               	goto	l762
  5395  001A92  0E01               	movlw	1
  5396  001A94  6E1C               	movwf	___lwdiv@counter,c
  5397  001A96  D004               	goto	l3617
  5398  001A98                     l3615:
  5399  001A98  90D8               	bcf	status,0,c
  5400  001A9A  361A               	rlcf	___lwdiv@divisor,f,c
  5401  001A9C  361B               	rlcf	___lwdiv@divisor+1,f,c
  5402  001A9E  2A1C               	incf	___lwdiv@counter,f,c
  5403  001AA0                     l3617:
  5404  001AA0  AE1B               	btfss	___lwdiv@divisor+1,7,c
  5405  001AA2  D7FA               	goto	l3615
  5406  001AA4                     l3619:
  5407  001AA4  90D8               	bcf	status,0,c
  5408  001AA6  361D               	rlcf	___lwdiv@quotient,f,c
  5409  001AA8  361E               	rlcf	___lwdiv@quotient+1,f,c
  5410  001AAA  501A               	movf	___lwdiv@divisor,w,c
  5411  001AAC  5C18               	subwf	___lwdiv@dividend,w,c
  5412  001AAE  501B               	movf	___lwdiv@divisor+1,w,c
  5413  001AB0  5819               	subwfb	___lwdiv@dividend+1,w,c
  5414  001AB2  A0D8               	btfss	status,0,c
  5415  001AB4  D005               	goto	l3627
  5416  001AB6  501A               	movf	___lwdiv@divisor,w,c
  5417  001AB8  5E18               	subwf	___lwdiv@dividend,f,c
  5418  001ABA  501B               	movf	___lwdiv@divisor+1,w,c
  5419  001ABC  5A19               	subwfb	___lwdiv@dividend+1,f,c
  5420  001ABE  801D               	bsf	___lwdiv@quotient,0,c
  5421  001AC0                     l3627:
  5422  001AC0  90D8               	bcf	status,0,c
  5423  001AC2  321B               	rrcf	___lwdiv@divisor+1,f,c
  5424  001AC4  321A               	rrcf	___lwdiv@divisor,f,c
  5425  001AC6  2E1C               	decfsz	___lwdiv@counter,f,c
  5426  001AC8  D7ED               	goto	l3619
  5427  001ACA                     l762:
  5428  001ACA  C01D  F018         	movff	___lwdiv@quotient,?___lwdiv
  5429  001ACE  C01E  F019         	movff	___lwdiv@quotient+1,?___lwdiv+1
  5430  001AD2  0012               	return		;funcret
  5431  001AD4                     __end_of___lwdiv:
  5432                           	opt stack 0
  5433                           tblptru	equ	0xFF8
  5434                           tblptrh	equ	0xFF7
  5435                           tblptrl	equ	0xFF6
  5436                           tablat	equ	0xFF5
  5437                           prodh	equ	0xFF4
  5438                           prodl	equ	0xFF3
  5439                           postinc0	equ	0xFEE
  5440                           wreg	equ	0xFE8
  5441                           indf1	equ	0xFE7
  5442                           postinc1	equ	0xFE6
  5443                           postdec1	equ	0xFE5
  5444                           plusw1	equ	0xFE3
  5445                           fsr1h	equ	0xFE2
  5446                           fsr1l	equ	0xFE1
  5447                           indf2	equ	0xFDF
  5448                           postinc2	equ	0xFDE
  5449                           plusw2	equ	0xFDB
  5450                           fsr2h	equ	0xFDA
  5451                           fsr2l	equ	0xFD9
  5452                           status	equ	0xFD8
  5453                           
  5454 ;; *************** function _Lcd_Write_String *****************
  5455 ;; Defined at:
  5456 ;;		line 111 in file "lcd.h"
  5457 ;; Parameters:    Size  Location     Type
  5458 ;;  a               2   27[COMRAM] PTR unsigned char 
  5459 ;;		 -> STR_30(17), STR_29(17), STR_28(16), STR_27(17), 
  5460 ;;		 -> STR_26(17), STR_25(17), STR_24(17), STR_23(17), 
  5461 ;;		 -> STR_22(17), STR_21(17), STR_20(2), STR_19(5), 
  5462 ;;		 -> STR_18(17), STR_17(17), STR_16(17), STR_15(17), 
  5463 ;;		 -> STR_14(17), STR_13(11), STR_12(6), STR_11(5), 
  5464 ;;		 -> STR_10(17), STR_9(17), STR_8(17), STR_7(17), 
  5465 ;;		 -> STR_6(17), STR_5(17), STR_4(17), STR_3(17), 
  5466 ;;		 -> STR_2(17), STR_1(2), RAM(1535), 
  5467 ;; Auto vars:     Size  Location     Type
  5468 ;;  i               2   31[COMRAM] int 
  5469 ;; Return value:  Size  Location     Type
  5470 ;;                  1    wreg      void 
  5471 ;; Registers used:
  5472 ;;		wreg, fsr0l, fsr0h, status,2, status,0, tblptrl, tblptrh, tblptru, cstack
  5473 ;; Tracked objects:
  5474 ;;		On entry : 0/0
  5475 ;;		On exit  : 0/0
  5476 ;;		Unchanged: 0/0
  5477 ;; Data sizes:     COMRAM   BANK0   BANK1   BANK2   BANK3   BANK4   BANK5
  5478 ;;      Params:         2       0       0       0       0       0       0
  5479 ;;      Locals:         2       0       0       0       0       0       0
  5480 ;;      Temps:          2       0       0       0       0       0       0
  5481 ;;      Totals:         6       0       0       0       0       0       0
  5482 ;;Total ram usage:        6 bytes
  5483 ;; Hardware stack levels used:    1
  5484 ;; Hardware stack levels required when called:    4
  5485 ;; This function calls:
  5486 ;;		_Lcd_Write_Char
  5487 ;; This function is called by:
  5488 ;;		_menu_progress_bar
  5489 ;;		_main
  5490 ;;		_start_routine
  5491 ;;		_menu_animation_i2c
  5492 ;; This function uses a non-reentrant model
  5493 ;;
  5494                           
  5495                           	psect	text5
  5496  001A10                     __ptext5:
  5497                           	opt stack 0
  5498  001A10                     _Lcd_Write_String:
  5499                           	opt stack 24
  5500                           
  5501                           ;lcd.h: 113: int i;
  5502                           ;lcd.h: 114: for(i=0;a[i]!='\0';i++)
  5503                           
  5504                           ;incstack = 0
  5505  001A10  0E00               	movlw	0
  5506  001A12  6E21               	movwf	Lcd_Write_String@i+1,c
  5507  001A14  0E00               	movlw	0
  5508  001A16  6E20               	movwf	Lcd_Write_String@i,c
  5509  001A18  D01A               	goto	l3513
  5510  001A1A                     l3509:
  5511                           
  5512                           ;lcd.h: 115: Lcd_Write_Char(a[i]);
  5513  001A1A  5020               	movf	Lcd_Write_String@i,w,c
  5514  001A1C  241C               	addwf	Lcd_Write_String@a,w,c
  5515  001A1E  6E1E               	movwf	??_Lcd_Write_String& (0+255),c
  5516  001A20  5021               	movf	Lcd_Write_String@i+1,w,c
  5517  001A22  201D               	addwfc	Lcd_Write_String@a+1,w,c
  5518  001A24  6E1F               	movwf	(??_Lcd_Write_String+1)& (0+255),c
  5519  001A26  C01E  FFF6         	movff	??_Lcd_Write_String,tblptrl
  5520  001A2A  C01F  FFF7         	movff	??_Lcd_Write_String+1,tblptrh
  5521  001A2E  6AF8               	clrf	tblptru,c
  5522  001A30  0E05               	movlw	(high __ramtop+-1)
  5523  001A32  64F7               	cpfsgt	tblptrh,c
  5524  001A34  D003               	bra	u3177
  5525  001A36  0008               	tblrd		*
  5526  001A38  50F5               	movf	tablat,w,c
  5527  001A3A  D005               	bra	u3170
  5528  001A3C                     u3177:
  5529  001A3C  CFF6 FFE9          	movff	tblptrl,fsr0l
  5530  001A40  CFF7 FFEA          	movff	tblptrh,fsr0h
  5531  001A44  50EF               	movf	indf0,w,c
  5532  001A46                     u3170:
  5533  001A46  ECE2  F00D         	call	_Lcd_Write_Char
  5534  001A4A  4A20               	infsnz	Lcd_Write_String@i,f,c
  5535  001A4C  2A21               	incf	Lcd_Write_String@i+1,f,c
  5536  001A4E                     l3513:
  5537  001A4E  5020               	movf	Lcd_Write_String@i,w,c
  5538  001A50  241C               	addwf	Lcd_Write_String@a,w,c
  5539  001A52  6E1E               	movwf	??_Lcd_Write_String& (0+255),c
  5540  001A54  5021               	movf	Lcd_Write_String@i+1,w,c
  5541  001A56  201D               	addwfc	Lcd_Write_String@a+1,w,c
  5542  001A58  6E1F               	movwf	(??_Lcd_Write_String+1)& (0+255),c
  5543  001A5A  C01E  FFF6         	movff	??_Lcd_Write_String,tblptrl
  5544  001A5E  C01F  FFF7         	movff	??_Lcd_Write_String+1,tblptrh
  5545  001A62  6AF8               	clrf	tblptru,c
  5546  001A64  0E05               	movlw	(high __ramtop+-1)
  5547  001A66  64F7               	cpfsgt	tblptrh,c
  5548  001A68  D003               	bra	u3187
  5549  001A6A  0008               	tblrd		*
  5550  001A6C  50F5               	movf	tablat,w,c
  5551  001A6E  D005               	bra	u3180
  5552  001A70                     u3187:
  5553  001A70  CFF6 FFE9          	movff	tblptrl,fsr0l
  5554  001A74  CFF7 FFEA          	movff	tblptrh,fsr0h
  5555  001A78  50EF               	movf	indf0,w,c
  5556  001A7A                     u3180:
  5557  001A7A  0900               	iorlw	0
  5558  001A7C  B4D8               	btfsc	status,2,c
  5559  001A7E  0012               	return	
  5560  001A80  D7CC               	goto	l3509
  5561  001A82                     __end_of_Lcd_Write_String:
  5562                           	opt stack 0
  5563                           tblptru	equ	0xFF8
  5564                           tblptrh	equ	0xFF7
  5565                           tblptrl	equ	0xFF6
  5566                           tablat	equ	0xFF5
  5567                           prodh	equ	0xFF4
  5568                           prodl	equ	0xFF3
  5569                           indf0	equ	0xFEF
  5570                           postinc0	equ	0xFEE
  5571                           fsr0h	equ	0xFEA
  5572                           fsr0l	equ	0xFE9
  5573                           wreg	equ	0xFE8
  5574                           indf1	equ	0xFE7
  5575                           postinc1	equ	0xFE6
  5576                           postdec1	equ	0xFE5
  5577                           plusw1	equ	0xFE3
  5578                           fsr1h	equ	0xFE2
  5579                           fsr1l	equ	0xFE1
  5580                           indf2	equ	0xFDF
  5581                           postinc2	equ	0xFDE
  5582                           plusw2	equ	0xFDB
  5583                           fsr2h	equ	0xFDA
  5584                           fsr2l	equ	0xFD9
  5585                           status	equ	0xFD8
  5586                           
  5587 ;; *************** function _Lcd_Write_Char *****************
  5588 ;; Defined at:
  5589 ;;		line 95 in file "lcd.h"
  5590 ;; Parameters:    Size  Location     Type
  5591 ;;  a               1    wreg     unsigned char 
  5592 ;; Auto vars:     Size  Location     Type
  5593 ;;  a               1   26[COMRAM] unsigned char 
  5594 ;;  y               1   25[COMRAM] unsigned char 
  5595 ;;  temp            1   24[COMRAM] unsigned char 
  5596 ;; Return value:  Size  Location     Type
  5597 ;;                  1    wreg      void 
  5598 ;; Registers used:
  5599 ;;		wreg, status,2, status,0, cstack
  5600 ;; Tracked objects:
  5601 ;;		On entry : 0/0
  5602 ;;		On exit  : 0/0
  5603 ;;		Unchanged: 0/0
  5604 ;; Data sizes:     COMRAM   BANK0   BANK1   BANK2   BANK3   BANK4   BANK5
  5605 ;;      Params:         0       0       0       0       0       0       0
  5606 ;;      Locals:         3       0       0       0       0       0       0
  5607 ;;      Temps:          0       0       0       0       0       0       0
  5608 ;;      Totals:         3       0       0       0       0       0       0
  5609 ;;Total ram usage:        3 bytes
  5610 ;; Hardware stack levels used:    1
  5611 ;; Hardware stack levels required when called:    3
  5612 ;; This function calls:
  5613 ;;		_Lcd_Port
  5614 ;; This function is called by:
  5615 ;;		_Lcd_Write_String
  5616 ;;		_menu_progress_bar
  5617 ;;		_main
  5618 ;;		_start_routine
  5619 ;;		_menu_main
  5620 ;; This function uses a non-reentrant model
  5621 ;;
  5622                           
  5623                           	psect	text6
  5624  001BC4                     __ptext6:
  5625                           	opt stack 0
  5626  001BC4                     _Lcd_Write_Char:
  5627                           	opt stack 24
  5628                           
  5629                           ;incstack = 0
  5630                           ;Lcd_Write_Char@a stored from wreg
  5631  001BC4  6E1B               	movwf	Lcd_Write_Char@a,c
  5632                           
  5633                           ;lcd.h: 97: char temp,y;
  5634                           ;lcd.h: 98: temp = a&0x0F;
  5635  001BC6  501B               	movf	Lcd_Write_Char@a,w,c
  5636  001BC8  0B0F               	andlw	15
  5637  001BCA  6E19               	movwf	Lcd_Write_Char@temp,c
  5638                           
  5639                           ;lcd.h: 99: y = a&0xF0;
  5640  001BCC  501B               	movf	Lcd_Write_Char@a,w,c
  5641  001BCE  0BF0               	andlw	240
  5642  001BD0  6E1A               	movwf	Lcd_Write_Char@y,c
  5643                           
  5644                           ;lcd.h: 100: PORTDbits.RD5 = 1;
  5645  001BD2  8A83               	bsf	3971,5,c	;volatile
  5646                           
  5647                           ;lcd.h: 101: Lcd_Port(y>>4);
  5648  001BD4  381A               	swapf	Lcd_Write_Char@y,w,c
  5649  001BD6  0B0F               	andlw	15
  5650  001BD8  EC1A  F00E         	call	_Lcd_Port
  5651                           
  5652                           ;lcd.h: 102: PORTDbits.RD4 = 1;
  5653  001BDC  8883               	bsf	3971,4,c	;volatile
  5654                           
  5655                           ;lcd.h: 103: _delay((unsigned long)((40)*(16000000/4000000.0)));
  5656  001BDE  0E35               	movlw	53
  5657  001BE0                     u4677:
  5658  001BE0  2EE8               	decfsz	wreg,f,c
  5659  001BE2  D7FE               	goto	u4677
  5660  001BE4  F000               	nop	
  5661                           
  5662                           ;lcd.h: 104: PORTDbits.RD4 = 0;
  5663  001BE6  9883               	bcf	3971,4,c	;volatile
  5664                           
  5665                           ;lcd.h: 105: Lcd_Port(temp);
  5666  001BE8  5019               	movf	Lcd_Write_Char@temp,w,c
  5667  001BEA  EC1A  F00E         	call	_Lcd_Port
  5668                           
  5669                           ;lcd.h: 106: PORTDbits.RD4 = 1;
  5670  001BEE  8883               	bsf	3971,4,c	;volatile
  5671                           
  5672                           ;lcd.h: 107: _delay((unsigned long)((40)*(16000000/4000000.0)));
  5673  001BF0  0E35               	movlw	53
  5674  001BF2                     u4687:
  5675  001BF2  2EE8               	decfsz	wreg,f,c
  5676  001BF4  D7FE               	goto	u4687
  5677  001BF6  F000               	nop	
  5678                           
  5679                           ;lcd.h: 108: PORTDbits.RD4 = 0;
  5680  001BF8  9883               	bcf	3971,4,c	;volatile
  5681  001BFA  0012               	return		;funcret
  5682  001BFC                     __end_of_Lcd_Write_Char:
  5683                           	opt stack 0
  5684                           tblptru	equ	0xFF8
  5685                           tblptrh	equ	0xFF7
  5686                           tblptrl	equ	0xFF6
  5687                           tablat	equ	0xFF5
  5688                           prodh	equ	0xFF4
  5689                           prodl	equ	0xFF3
  5690                           indf0	equ	0xFEF
  5691                           postinc0	equ	0xFEE
  5692                           fsr0h	equ	0xFEA
  5693                           fsr0l	equ	0xFE9
  5694                           wreg	equ	0xFE8
  5695                           indf1	equ	0xFE7
  5696                           postinc1	equ	0xFE6
  5697                           postdec1	equ	0xFE5
  5698                           plusw1	equ	0xFE3
  5699                           fsr1h	equ	0xFE2
  5700                           fsr1l	equ	0xFE1
  5701                           indf2	equ	0xFDF
  5702                           postinc2	equ	0xFDE
  5703                           plusw2	equ	0xFDB
  5704                           fsr2h	equ	0xFDA
  5705                           fsr2l	equ	0xFD9
  5706                           status	equ	0xFD8
  5707                           
  5708 ;; *************** function _Lcd_Set_Cursor *****************
  5709 ;; Defined at:
  5710 ;;		line 55 in file "lcd.h"
  5711 ;; Parameters:    Size  Location     Type
  5712 ;;  a               1    wreg     unsigned char 
  5713 ;;  b               1   25[COMRAM] unsigned char 
  5714 ;; Auto vars:     Size  Location     Type
  5715 ;;  a               1   26[COMRAM] unsigned char 
  5716 ;;  temp            1   29[COMRAM] unsigned char 
  5717 ;;  y               1   28[COMRAM] unsigned char 
  5718 ;;  z               1   27[COMRAM] unsigned char 
  5719 ;; Return value:  Size  Location     Type
  5720 ;;                  1    wreg      void 
  5721 ;; Registers used:
  5722 ;;		wreg, status,2, status,0, cstack
  5723 ;; Tracked objects:
  5724 ;;		On entry : 0/0
  5725 ;;		On exit  : 0/0
  5726 ;;		Unchanged: 0/0
  5727 ;; Data sizes:     COMRAM   BANK0   BANK1   BANK2   BANK3   BANK4   BANK5
  5728 ;;      Params:         1       0       0       0       0       0       0
  5729 ;;      Locals:         4       0       0       0       0       0       0
  5730 ;;      Temps:          0       0       0       0       0       0       0
  5731 ;;      Totals:         5       0       0       0       0       0       0
  5732 ;;Total ram usage:        5 bytes
  5733 ;; Hardware stack levels used:    1
  5734 ;; Hardware stack levels required when called:    4
  5735 ;; This function calls:
  5736 ;;		_Lcd_Cmd
  5737 ;; This function is called by:
  5738 ;;		_menu_progress_bar
  5739 ;;		_main
  5740 ;;		_start_routine
  5741 ;;		_menu_main
  5742 ;;		_menu_animation_i2c
  5743 ;; This function uses a non-reentrant model
  5744 ;;
  5745                           
  5746                           	psect	text7
  5747  001B24                     __ptext7:
  5748                           	opt stack 0
  5749  001B24                     _Lcd_Set_Cursor:
  5750                           	opt stack 24
  5751                           
  5752                           ;incstack = 0
  5753                           ;Lcd_Set_Cursor@a stored from wreg
  5754  001B24  6E1B               	movwf	Lcd_Set_Cursor@a,c
  5755                           
  5756                           ;lcd.h: 57: char temp,z,y;
  5757                           ;lcd.h: 58: if(a == 1)
  5758  001B26  041B               	decf	Lcd_Set_Cursor@a,w,c
  5759  001B28  A4D8               	btfss	status,2,c
  5760  001B2A  D010               	goto	l3499
  5761                           
  5762                           ;lcd.h: 59: {
  5763                           ;lcd.h: 60: temp = 0x80 + b - 1;
  5764  001B2C  501A               	movf	Lcd_Set_Cursor@b,w,c
  5765  001B2E  0F7F               	addlw	127
  5766  001B30  6E1E               	movwf	Lcd_Set_Cursor@temp,c
  5767                           
  5768                           ;lcd.h: 61: z = temp>>4;
  5769  001B32  381E               	swapf	Lcd_Set_Cursor@temp,w,c
  5770  001B34  0B0F               	andlw	15
  5771  001B36  6E1C               	movwf	Lcd_Set_Cursor@z,c
  5772                           
  5773                           ;lcd.h: 62: y = temp & 0x0F;
  5774  001B38  501E               	movf	Lcd_Set_Cursor@temp,w,c
  5775  001B3A  0B0F               	andlw	15
  5776  001B3C  6E1D               	movwf	Lcd_Set_Cursor@y,c
  5777                           
  5778                           ;lcd.h: 63: Lcd_Cmd(z);
  5779  001B3E  501C               	movf	Lcd_Set_Cursor@z,w,c
  5780  001B40  EC76  F00E         	call	_Lcd_Cmd
  5781                           
  5782                           ;lcd.h: 64: Lcd_Cmd(y);
  5783  001B44  501D               	movf	Lcd_Set_Cursor@y,w,c
  5784  001B46  EC76  F00E         	call	_Lcd_Cmd
  5785                           
  5786                           ;lcd.h: 65: }
  5787  001B4A  0012               	return	
  5788  001B4C                     l3499:
  5789                           
  5790                           ;lcd.h: 66: else if(a == 2)
  5791  001B4C  0E02               	movlw	2
  5792  001B4E  181B               	xorwf	Lcd_Set_Cursor@a,w,c
  5793  001B50  A4D8               	btfss	status,2,c
  5794  001B52  0012               	return	
  5795                           
  5796                           ;lcd.h: 67: {
  5797                           ;lcd.h: 68: temp = 0xC0 + b - 1;
  5798  001B54  501A               	movf	Lcd_Set_Cursor@b,w,c
  5799  001B56  0FBF               	addlw	191
  5800  001B58  6E1E               	movwf	Lcd_Set_Cursor@temp,c
  5801                           
  5802                           ;lcd.h: 69: z = temp>>4;
  5803  001B5A  381E               	swapf	Lcd_Set_Cursor@temp,w,c
  5804  001B5C  0B0F               	andlw	15
  5805  001B5E  6E1C               	movwf	Lcd_Set_Cursor@z,c
  5806                           
  5807                           ;lcd.h: 70: y = temp & 0x0F;
  5808  001B60  501E               	movf	Lcd_Set_Cursor@temp,w,c
  5809  001B62  0B0F               	andlw	15
  5810  001B64  6E1D               	movwf	Lcd_Set_Cursor@y,c
  5811                           
  5812                           ;lcd.h: 71: Lcd_Cmd(z);
  5813  001B66  501C               	movf	Lcd_Set_Cursor@z,w,c
  5814  001B68  EC76  F00E         	call	_Lcd_Cmd
  5815                           
  5816                           ;lcd.h: 72: Lcd_Cmd(y);
  5817  001B6C  501D               	movf	Lcd_Set_Cursor@y,w,c
  5818  001B6E  EC76  F00E         	call	_Lcd_Cmd
  5819  001B72  0012               	return	
  5820  001B74                     __end_of_Lcd_Set_Cursor:
  5821                           	opt stack 0
  5822                           tblptru	equ	0xFF8
  5823                           tblptrh	equ	0xFF7
  5824                           tblptrl	equ	0xFF6
  5825                           tablat	equ	0xFF5
  5826                           prodh	equ	0xFF4
  5827                           prodl	equ	0xFF3
  5828                           indf0	equ	0xFEF
  5829                           postinc0	equ	0xFEE
  5830                           fsr0h	equ	0xFEA
  5831                           fsr0l	equ	0xFE9
  5832                           wreg	equ	0xFE8
  5833                           indf1	equ	0xFE7
  5834                           postinc1	equ	0xFE6
  5835                           postdec1	equ	0xFE5
  5836                           plusw1	equ	0xFE3
  5837                           fsr1h	equ	0xFE2
  5838                           fsr1l	equ	0xFE1
  5839                           indf2	equ	0xFDF
  5840                           postinc2	equ	0xFDE
  5841                           plusw2	equ	0xFDB
  5842                           fsr2h	equ	0xFDA
  5843                           fsr2l	equ	0xFD9
  5844                           status	equ	0xFD8
  5845                           
  5846 ;; *************** function _Lcd_Clear *****************
  5847 ;; Defined at:
  5848 ;;		line 48 in file "lcd.h"
  5849 ;; Parameters:    Size  Location     Type
  5850 ;;		None
  5851 ;; Auto vars:     Size  Location     Type
  5852 ;;		None
  5853 ;; Return value:  Size  Location     Type
  5854 ;;                  1    wreg      void 
  5855 ;; Registers used:
  5856 ;;		wreg, status,2, cstack
  5857 ;; Tracked objects:
  5858 ;;		On entry : 0/0
  5859 ;;		On exit  : 0/0
  5860 ;;		Unchanged: 0/0
  5861 ;; Data sizes:     COMRAM   BANK0   BANK1   BANK2   BANK3   BANK4   BANK5
  5862 ;;      Params:         0       0       0       0       0       0       0
  5863 ;;      Locals:         0       0       0       0       0       0       0
  5864 ;;      Temps:          1       0       0       0       0       0       0
  5865 ;;      Totals:         1       0       0       0       0       0       0
  5866 ;;Total ram usage:        1 bytes
  5867 ;; Hardware stack levels used:    1
  5868 ;; Hardware stack levels required when called:    4
  5869 ;; This function calls:
  5870 ;;		_Lcd_Cmd
  5871 ;; This function is called by:
  5872 ;;		_menu_progress_bar
  5873 ;;		_main
  5874 ;;		_start_routine
  5875 ;; This function uses a non-reentrant model
  5876 ;;
  5877                           
  5878                           	psect	text8
  5879  001CCC                     __ptext8:
  5880                           	opt stack 0
  5881  001CCC                     _Lcd_Clear:
  5882                           	opt stack 24
  5883                           
  5884                           ;lcd.h: 50: Lcd_Cmd(0);
  5885                           
  5886                           ;incstack = 0
  5887  001CCC  0E00               	movlw	0
  5888  001CCE  EC76  F00E         	call	_Lcd_Cmd
  5889                           
  5890                           ;lcd.h: 51: Lcd_Cmd(1);
  5891  001CD2  0E01               	movlw	1
  5892  001CD4  EC76  F00E         	call	_Lcd_Cmd
  5893                           
  5894                           ;lcd.h: 52: _delay((unsigned long)((5)*(16000000/4000.0)));
  5895  001CD8  0E1A               	movlw	26
  5896  001CDA  6E1A               	movwf	??_Lcd_Clear& (0+255),c
  5897  001CDC  0EF8               	movlw	248
  5898  001CDE                     u4697:
  5899  001CDE  2EE8               	decfsz	wreg,f,c
  5900  001CE0  D7FE               	goto	u4697
  5901  001CE2  2E1A               	decfsz	??_Lcd_Clear& (0+255),f,c
  5902  001CE4  D7FC               	goto	u4697
  5903  001CE6  F000 F000          	nop2	
  5904  001CEA  0012               	return		;funcret
  5905  001CEC                     __end_of_Lcd_Clear:
  5906                           	opt stack 0
  5907                           tblptru	equ	0xFF8
  5908                           tblptrh	equ	0xFF7
  5909                           tblptrl	equ	0xFF6
  5910                           tablat	equ	0xFF5
  5911                           prodh	equ	0xFF4
  5912                           prodl	equ	0xFF3
  5913                           indf0	equ	0xFEF
  5914                           postinc0	equ	0xFEE
  5915                           fsr0h	equ	0xFEA
  5916                           fsr0l	equ	0xFE9
  5917                           wreg	equ	0xFE8
  5918                           indf1	equ	0xFE7
  5919                           postinc1	equ	0xFE6
  5920                           postdec1	equ	0xFE5
  5921                           plusw1	equ	0xFE3
  5922                           fsr1h	equ	0xFE2
  5923                           fsr1l	equ	0xFE1
  5924                           indf2	equ	0xFDF
  5925                           postinc2	equ	0xFDE
  5926                           plusw2	equ	0xFDB
  5927                           fsr2h	equ	0xFDA
  5928                           fsr2l	equ	0xFD9
  5929                           status	equ	0xFD8
  5930                           
  5931 ;; *************** function _latch_keypad *****************
  5932 ;; Defined at:
  5933 ;;		line 297 in file "main.c"
  5934 ;; Parameters:    Size  Location     Type
  5935 ;;  x               2   23[COMRAM] PTR unsigned char 
  5936 ;;		 -> start_routine@x_900(1), start_routine@x(1), main@x(1), 
  5937 ;; Auto vars:     Size  Location     Type
  5938 ;;		None
  5939 ;; Return value:  Size  Location     Type
  5940 ;;                  1    wreg      void 
  5941 ;; Registers used:
  5942 ;;		wreg, fsr2l, fsr2h, status,2, status,0, cstack
  5943 ;; Tracked objects:
  5944 ;;		On entry : 0/0
  5945 ;;		On exit  : 0/0
  5946 ;;		Unchanged: 0/0
  5947 ;; Data sizes:     COMRAM   BANK0   BANK1   BANK2   BANK3   BANK4   BANK5
  5948 ;;      Params:         2       0       0       0       0       0       0
  5949 ;;      Locals:         0       0       0       0       0       0       0
  5950 ;;      Temps:          2       0       0       0       0       0       0
  5951 ;;      Totals:         4       0       0       0       0       0       0
  5952 ;;Total ram usage:        4 bytes
  5953 ;; Hardware stack levels used:    1
  5954 ;; Hardware stack levels required when called:    3
  5955 ;; This function calls:
  5956 ;;		_read_keypad
  5957 ;; This function is called by:
  5958 ;;		_main
  5959 ;;		_start_routine
  5960 ;; This function uses a non-reentrant model
  5961 ;;
  5962                           
  5963                           	psect	text9
  5964  001BFC                     __ptext9:
  5965                           	opt stack 0
  5966  001BFC                     _latch_keypad:
  5967                           	opt stack 26
  5968                           
  5969                           ;main.c: 299: while (*x == read_keypad())
  5970                           
  5971                           ;incstack = 0
  5972  001BFC  D009               	goto	l3723
  5973  001BFE                     l3721:
  5974                           
  5975                           ;main.c: 300: {
  5976                           ;main.c: 301: _delay((unsigned long)((20)*(16000000/4000.0)));
  5977  001BFE  0E68               	movlw	104
  5978  001C00  6E1A               	movwf	??_latch_keypad& (0+255),c
  5979  001C02  0EE4               	movlw	228
  5980  001C04                     u4707:
  5981  001C04  2EE8               	decfsz	wreg,f,c
  5982  001C06  D7FE               	goto	u4707
  5983  001C08  2E1A               	decfsz	??_latch_keypad& (0+255),f,c
  5984  001C0A  D7FC               	goto	u4707
  5985  001C0C  F000 F000          	nop2	
  5986  001C10                     l3723:
  5987  001C10  C018  FFD9         	movff	latch_keypad@x,fsr2l
  5988  001C14  C019  FFDA         	movff	latch_keypad@x+1,fsr2h
  5989  001C18  ECA2  F00B         	call	_read_keypad	;wreg free
  5990  001C1C  6E1B               	movwf	(??_latch_keypad+1)& (0+255),c
  5991  001C1E  50DE               	movf	postinc2,w,c
  5992  001C20  181B               	xorwf	??_latch_keypad+1,w,c
  5993  001C22  B4D8               	btfsc	status,2,c
  5994  001C24  D7EC               	goto	l3721
  5995                           
  5996                           ;main.c: 302: }
  5997                           ;main.c: 303: *x = '_';
  5998  001C26  C018  FFD9         	movff	latch_keypad@x,fsr2l
  5999  001C2A  C019  FFDA         	movff	latch_keypad@x+1,fsr2h
  6000  001C2E  0E5F               	movlw	95
  6001  001C30  6EDF               	movwf	indf2,c
  6002  001C32  0012               	return		;funcret
  6003  001C34                     __end_of_latch_keypad:
  6004                           	opt stack 0
  6005                           tblptru	equ	0xFF8
  6006                           tblptrh	equ	0xFF7
  6007                           tblptrl	equ	0xFF6
  6008                           tablat	equ	0xFF5
  6009                           prodh	equ	0xFF4
  6010                           prodl	equ	0xFF3
  6011                           indf0	equ	0xFEF
  6012                           postinc0	equ	0xFEE
  6013                           fsr0h	equ	0xFEA
  6014                           fsr0l	equ	0xFE9
  6015                           wreg	equ	0xFE8
  6016                           indf1	equ	0xFE7
  6017                           postinc1	equ	0xFE6
  6018                           postdec1	equ	0xFE5
  6019                           plusw1	equ	0xFE3
  6020                           fsr1h	equ	0xFE2
  6021                           fsr1l	equ	0xFE1
  6022                           indf2	equ	0xFDF
  6023                           postinc2	equ	0xFDE
  6024                           plusw2	equ	0xFDB
  6025                           fsr2h	equ	0xFDA
  6026                           fsr2l	equ	0xFD9
  6027                           status	equ	0xFD8
  6028                           
  6029 ;; *************** function _read_keypad *****************
  6030 ;; Defined at:
  6031 ;;		line 272 in file "main.c"
  6032 ;; Parameters:    Size  Location     Type
  6033 ;;		None
  6034 ;; Auto vars:     Size  Location     Type
  6035 ;;		None
  6036 ;; Return value:  Size  Location     Type
  6037 ;;                  1    wreg      unsigned char 
  6038 ;; Registers used:
  6039 ;;		wreg, status,2
  6040 ;; Tracked objects:
  6041 ;;		On entry : 0/0
  6042 ;;		On exit  : 0/0
  6043 ;;		Unchanged: 0/0
  6044 ;; Data sizes:     COMRAM   BANK0   BANK1   BANK2   BANK3   BANK4   BANK5
  6045 ;;      Params:         0       0       0       0       0       0       0
  6046 ;;      Locals:         0       0       0       0       0       0       0
  6047 ;;      Temps:          0       0       0       0       0       0       0
  6048 ;;      Totals:         0       0       0       0       0       0       0
  6049 ;;Total ram usage:        0 bytes
  6050 ;; Hardware stack levels used:    1
  6051 ;; Hardware stack levels required when called:    2
  6052 ;; This function calls:
  6053 ;;		Nothing
  6054 ;; This function is called by:
  6055 ;;		_main
  6056 ;;		_latch_keypad
  6057 ;;		_start_routine
  6058 ;; This function uses a non-reentrant model
  6059 ;;
  6060                           
  6061                           	psect	text10
  6062  001744                     __ptext10:
  6063                           	opt stack 0
  6064  001744                     _read_keypad:
  6065                           	opt stack 27
  6066                           
  6067                           ;main.c: 274: TRISB = 0b00011111;
  6068                           
  6069                           ;incstack = 0
  6070  001744  0E1F               	movlw	31
  6071  001746  6E93               	movwf	3987,c	;volatile
  6072                           
  6073                           ;main.c: 275: TRISC = 0b00011000;
  6074  001748  0E18               	movlw	24
  6075  00174A  6E94               	movwf	3988,c	;volatile
  6076                           
  6077                           ;main.c: 276: TRISD = 0b00000000;
  6078  00174C  0E00               	movlw	0
  6079  00174E  6E95               	movwf	3989,c	;volatile
  6080                           
  6081                           ;main.c: 277: PORTD = 0b00000001;
  6082  001750  0E01               	movlw	1
  6083  001752  6E83               	movwf	3971,c	;volatile
  6084                           
  6085                           ;main.c: 279: if (PORTBbits.RB4) {PORTC = 0x00; return '*';}
  6086  001754  A881               	btfss	3969,4,c	;volatile
  6087  001756  D004               	goto	l252
  6088  001758  0E00               	movlw	0
  6089  00175A  6E82               	movwf	3970,c	;volatile
  6090  00175C  0E2A               	movlw	42
  6091  00175E  0012               	return	
  6092  001760                     l252:
  6093                           
  6094                           ;main.c: 280: if (PORTBbits.RB1) {PORTC = 0x00; return '1';}
  6095  001760  A281               	btfss	3969,1,c	;volatile
  6096  001762  D004               	goto	l254
  6097  001764  0E00               	movlw	0
  6098  001766  6E82               	movwf	3970,c	;volatile
  6099  001768  0E31               	movlw	49
  6100  00176A  0012               	return	
  6101  00176C                     l254:
  6102                           
  6103                           ;main.c: 281: if (PORTBbits.RB2) {PORTC = 0x00; return '4';}
  6104  00176C  A481               	btfss	3969,2,c	;volatile
  6105  00176E  D004               	goto	l255
  6106  001770  0E00               	movlw	0
  6107  001772  6E82               	movwf	3970,c	;volatile
  6108  001774  0E34               	movlw	52
  6109  001776  0012               	return	
  6110  001778                     l255:
  6111                           
  6112                           ;main.c: 282: if (PORTBbits.RB3) {PORTC = 0x00; return '7';}
  6113  001778  A681               	btfss	3969,3,c	;volatile
  6114  00177A  D004               	goto	l3543
  6115  00177C  0E00               	movlw	0
  6116  00177E  6E82               	movwf	3970,c	;volatile
  6117  001780  0E37               	movlw	55
  6118  001782  0012               	return	
  6119  001784                     l3543:
  6120                           
  6121                           ;main.c: 283: PORTD = 0b00000010;
  6122  001784  0E02               	movlw	2
  6123  001786  6E83               	movwf	3971,c	;volatile
  6124                           
  6125                           ;main.c: 285: if (PORTBbits.RB1) {PORTC = 0x00; return '2';}
  6126  001788  A281               	btfss	3969,1,c	;volatile
  6127  00178A  D004               	goto	l257
  6128  00178C  0E00               	movlw	0
  6129  00178E  6E82               	movwf	3970,c	;volatile
  6130  001790  0E32               	movlw	50
  6131  001792  0012               	return	
  6132  001794                     l257:
  6133                           
  6134                           ;main.c: 286: if (PORTBbits.RB2) {PORTC = 0x00; return '5';}
  6135  001794  A481               	btfss	3969,2,c	;volatile
  6136  001796  D004               	goto	l258
  6137  001798  0E00               	movlw	0
  6138  00179A  6E82               	movwf	3970,c	;volatile
  6139  00179C  0E35               	movlw	53
  6140  00179E  0012               	return	
  6141  0017A0                     l258:
  6142                           
  6143                           ;main.c: 287: if (PORTBbits.RB3) {PORTC = 0x00; return '8';}
  6144  0017A0  A681               	btfss	3969,3,c	;volatile
  6145  0017A2  D004               	goto	l259
  6146  0017A4  0E00               	movlw	0
  6147  0017A6  6E82               	movwf	3970,c	;volatile
  6148  0017A8  0E38               	movlw	56
  6149  0017AA  0012               	return	
  6150  0017AC                     l259:
  6151                           
  6152                           ;main.c: 288: if (PORTBbits.RB4) {PORTC = 0x00; return '0';}
  6153  0017AC  A881               	btfss	3969,4,c	;volatile
  6154  0017AE  D004               	goto	l3571
  6155  0017B0  0E00               	movlw	0
  6156  0017B2  6E82               	movwf	3970,c	;volatile
  6157  0017B4  0E30               	movlw	48
  6158  0017B6  0012               	return	
  6159  0017B8                     l3571:
  6160                           
  6161                           ;main.c: 289: PORTD = 0b00000100;
  6162  0017B8  0E04               	movlw	4
  6163  0017BA  6E83               	movwf	3971,c	;volatile
  6164                           
  6165                           ;main.c: 291: if (PORTBbits.RB1) {PORTC = 0x00; return '3';}
  6166  0017BC  A281               	btfss	3969,1,c	;volatile
  6167  0017BE  D004               	goto	l261
  6168  0017C0  0E00               	movlw	0
  6169  0017C2  6E82               	movwf	3970,c	;volatile
  6170  0017C4  0E33               	movlw	51
  6171  0017C6  0012               	return	
  6172  0017C8                     l261:
  6173                           
  6174                           ;main.c: 292: if (PORTBbits.RB2) {PORTC = 0x00; return '6';}
  6175  0017C8  A481               	btfss	3969,2,c	;volatile
  6176  0017CA  D004               	goto	l262
  6177  0017CC  0E00               	movlw	0
  6178  0017CE  6E82               	movwf	3970,c	;volatile
  6179  0017D0  0E36               	movlw	54
  6180  0017D2  0012               	return	
  6181  0017D4                     l262:
  6182                           
  6183                           ;main.c: 293: if (PORTBbits.RB3) {PORTC = 0x00; return '9';}
  6184  0017D4  A681               	btfss	3969,3,c	;volatile
  6185  0017D6  D004               	goto	l263
  6186  0017D8  0E00               	movlw	0
  6187  0017DA  6E82               	movwf	3970,c	;volatile
  6188  0017DC  0E39               	movlw	57
  6189  0017DE  0012               	return	
  6190  0017E0                     l263:
  6191                           
  6192                           ;main.c: 294: if (PORTBbits.RB4) {PORTC = 0x00; return '#';}
  6193  0017E0  A881               	btfss	3969,4,c	;volatile
  6194  0017E2  D004               	goto	l3599
  6195  0017E4  0E00               	movlw	0
  6196  0017E6  6E82               	movwf	3970,c	;volatile
  6197  0017E8  0E23               	movlw	35
  6198  0017EA  0012               	return	
  6199  0017EC                     l3599:
  6200                           
  6201                           ;main.c: 295: return '_';
  6202  0017EC  0E5F               	movlw	95
  6203  0017EE  0012               	return	
  6204  0017F0                     __end_of_read_keypad:
  6205                           	opt stack 0
  6206                           tblptru	equ	0xFF8
  6207                           tblptrh	equ	0xFF7
  6208                           tblptrl	equ	0xFF6
  6209                           tablat	equ	0xFF5
  6210                           prodh	equ	0xFF4
  6211                           prodl	equ	0xFF3
  6212                           indf0	equ	0xFEF
  6213                           postinc0	equ	0xFEE
  6214                           fsr0h	equ	0xFEA
  6215                           fsr0l	equ	0xFE9
  6216                           wreg	equ	0xFE8
  6217                           indf1	equ	0xFE7
  6218                           postinc1	equ	0xFE6
  6219                           postdec1	equ	0xFE5
  6220                           plusw1	equ	0xFE3
  6221                           fsr1h	equ	0xFE2
  6222                           fsr1l	equ	0xFE1
  6223                           indf2	equ	0xFDF
  6224                           postinc2	equ	0xFDE
  6225                           plusw2	equ	0xFDB
  6226                           fsr2h	equ	0xFDA
  6227                           fsr2l	equ	0xFD9
  6228                           status	equ	0xFD8
  6229                           
  6230 ;; *************** function ___awdiv *****************
  6231 ;; Defined at:
  6232 ;;		line 8 in file "C:\Program Files (x86)\Microchip\xc8\v1.37\sources\common\awdiv.c"
  6233 ;; Parameters:    Size  Location     Type
  6234 ;;  dividend        2   23[COMRAM] int 
  6235 ;;  divisor         2   25[COMRAM] int 
  6236 ;; Auto vars:     Size  Location     Type
  6237 ;;  quotient        2   29[COMRAM] int 
  6238 ;;  sign            1   28[COMRAM] unsigned char 
  6239 ;;  counter         1   27[COMRAM] unsigned char 
  6240 ;; Return value:  Size  Location     Type
  6241 ;;                  2   23[COMRAM] int 
  6242 ;; Registers used:
  6243 ;;		wreg, status,2, status,0
  6244 ;; Tracked objects:
  6245 ;;		On entry : 0/0
  6246 ;;		On exit  : 0/0
  6247 ;;		Unchanged: 0/0
  6248 ;; Data sizes:     COMRAM   BANK0   BANK1   BANK2   BANK3   BANK4   BANK5
  6249 ;;      Params:         4       0       0       0       0       0       0
  6250 ;;      Locals:         4       0       0       0       0       0       0
  6251 ;;      Temps:          0       0       0       0       0       0       0
  6252 ;;      Totals:         8       0       0       0       0       0       0
  6253 ;;Total ram usage:        8 bytes
  6254 ;; Hardware stack levels used:    1
  6255 ;; Hardware stack levels required when called:    2
  6256 ;; This function calls:
  6257 ;;		Nothing
  6258 ;; This function is called by:
  6259 ;;		_main
  6260 ;;		_start_routine
  6261 ;; This function uses a non-reentrant model
  6262 ;;
  6263                           
  6264                           	psect	text11
  6265  001896                     __ptext11:
  6266                           	opt stack 0
  6267  001896                     ___awdiv:
  6268                           	opt stack 27
  6269                           
  6270                           ;incstack = 0
  6271  001896  0E00               	movlw	0
  6272  001898  6E1D               	movwf	___awdiv@sign,c
  6273  00189A  AE1B               	btfss	___awdiv@divisor+1,7,c
  6274  00189C  D006               	goto	l3735
  6275  00189E  6C1A               	negf	___awdiv@divisor,c
  6276  0018A0  1E1B               	comf	___awdiv@divisor+1,f,c
  6277  0018A2  B0D8               	btfsc	status,0,c
  6278  0018A4  2A1B               	incf	___awdiv@divisor+1,f,c
  6279  0018A6  0E01               	movlw	1
  6280  0018A8  6E1D               	movwf	___awdiv@sign,c
  6281  0018AA                     l3735:
  6282  0018AA  AE19               	btfss	___awdiv@dividend+1,7,c
  6283  0018AC  D006               	goto	l3741
  6284  0018AE  6C18               	negf	___awdiv@dividend,c
  6285  0018B0  1E19               	comf	___awdiv@dividend+1,f,c
  6286  0018B2  B0D8               	btfsc	status,0,c
  6287  0018B4  2A19               	incf	___awdiv@dividend+1,f,c
  6288  0018B6  0E01               	movlw	1
  6289  0018B8  1A1D               	xorwf	___awdiv@sign,f,c
  6290  0018BA                     l3741:
  6291  0018BA  0E00               	movlw	0
  6292  0018BC  6E1F               	movwf	___awdiv@quotient+1,c
  6293  0018BE  0E00               	movlw	0
  6294  0018C0  6E1E               	movwf	___awdiv@quotient,c
  6295  0018C2  501A               	movf	___awdiv@divisor,w,c
  6296  0018C4  101B               	iorwf	___awdiv@divisor+1,w,c
  6297  0018C6  B4D8               	btfsc	status,2,c
  6298  0018C8  D01C               	goto	l3763
  6299  0018CA  0E01               	movlw	1
  6300  0018CC  6E1C               	movwf	___awdiv@counter,c
  6301  0018CE  D004               	goto	l3749
  6302  0018D0                     l3747:
  6303  0018D0  90D8               	bcf	status,0,c
  6304  0018D2  361A               	rlcf	___awdiv@divisor,f,c
  6305  0018D4  361B               	rlcf	___awdiv@divisor+1,f,c
  6306  0018D6  2A1C               	incf	___awdiv@counter,f,c
  6307  0018D8                     l3749:
  6308  0018D8  AE1B               	btfss	___awdiv@divisor+1,7,c
  6309  0018DA  D7FA               	goto	l3747
  6310  0018DC                     l3751:
  6311  0018DC  90D8               	bcf	status,0,c
  6312  0018DE  361E               	rlcf	___awdiv@quotient,f,c
  6313  0018E0  361F               	rlcf	___awdiv@quotient+1,f,c
  6314  0018E2  501A               	movf	___awdiv@divisor,w,c
  6315  0018E4  5C18               	subwf	___awdiv@dividend,w,c
  6316  0018E6  501B               	movf	___awdiv@divisor+1,w,c
  6317  0018E8  5819               	subwfb	___awdiv@dividend+1,w,c
  6318  0018EA  A0D8               	btfss	status,0,c
  6319  0018EC  D005               	goto	l3759
  6320  0018EE  501A               	movf	___awdiv@divisor,w,c
  6321  0018F0  5E18               	subwf	___awdiv@dividend,f,c
  6322  0018F2  501B               	movf	___awdiv@divisor+1,w,c
  6323  0018F4  5A19               	subwfb	___awdiv@dividend+1,f,c
  6324  0018F6  801E               	bsf	___awdiv@quotient,0,c
  6325  0018F8                     l3759:
  6326  0018F8  90D8               	bcf	status,0,c
  6327  0018FA  321B               	rrcf	___awdiv@divisor+1,f,c
  6328  0018FC  321A               	rrcf	___awdiv@divisor,f,c
  6329  0018FE  2E1C               	decfsz	___awdiv@counter,f,c
  6330  001900  D7ED               	goto	l3751
  6331  001902                     l3763:
  6332  001902  501D               	movf	___awdiv@sign,w,c
  6333  001904  B4D8               	btfsc	status,2,c
  6334  001906  D004               	goto	l3767
  6335  001908  6C1E               	negf	___awdiv@quotient,c
  6336  00190A  1E1F               	comf	___awdiv@quotient+1,f,c
  6337  00190C  B0D8               	btfsc	status,0,c
  6338  00190E  2A1F               	incf	___awdiv@quotient+1,f,c
  6339  001910                     l3767:
  6340  001910  C01E  F018         	movff	___awdiv@quotient,?___awdiv
  6341  001914  C01F  F019         	movff	___awdiv@quotient+1,?___awdiv+1
  6342  001918  0012               	return	
  6343  00191A                     __end_of___awdiv:
  6344                           	opt stack 0
  6345                           tblptru	equ	0xFF8
  6346                           tblptrh	equ	0xFF7
  6347                           tblptrl	equ	0xFF6
  6348                           tablat	equ	0xFF5
  6349                           prodh	equ	0xFF4
  6350                           prodl	equ	0xFF3
  6351                           indf0	equ	0xFEF
  6352                           postinc0	equ	0xFEE
  6353                           fsr0h	equ	0xFEA
  6354                           fsr0l	equ	0xFE9
  6355                           wreg	equ	0xFE8
  6356                           indf1	equ	0xFE7
  6357                           postinc1	equ	0xFE6
  6358                           postdec1	equ	0xFE5
  6359                           plusw1	equ	0xFE3
  6360                           fsr1h	equ	0xFE2
  6361                           fsr1l	equ	0xFE1
  6362                           indf2	equ	0xFDF
  6363                           postinc2	equ	0xFDE
  6364                           plusw2	equ	0xFDB
  6365                           fsr2h	equ	0xFDA
  6366                           fsr2l	equ	0xFD9
  6367                           status	equ	0xFD8
  6368                           
  6369 ;; *************** function _Eeprom_Write_Byte *****************
  6370 ;; Defined at:
  6371 ;;		line 43 in file "eeprom.h"
  6372 ;; Parameters:    Size  Location     Type
  6373 ;;  address         1    wreg     unsigned char 
  6374 ;;  data            1   23[COMRAM] unsigned char 
  6375 ;; Auto vars:     Size  Location     Type
  6376 ;;  address         1   24[COMRAM] unsigned char 
  6377 ;; Return value:  Size  Location     Type
  6378 ;;                  1    wreg      void 
  6379 ;; Registers used:
  6380 ;;		wreg, status,2
  6381 ;; Tracked objects:
  6382 ;;		On entry : 0/0
  6383 ;;		On exit  : 0/0
  6384 ;;		Unchanged: 0/0
  6385 ;; Data sizes:     COMRAM   BANK0   BANK1   BANK2   BANK3   BANK4   BANK5
  6386 ;;      Params:         1       0       0       0       0       0       0
  6387 ;;      Locals:         1       0       0       0       0       0       0
  6388 ;;      Temps:          0       0       0       0       0       0       0
  6389 ;;      Totals:         2       0       0       0       0       0       0
  6390 ;;Total ram usage:        2 bytes
  6391 ;; Hardware stack levels used:    1
  6392 ;; Hardware stack levels required when called:    2
  6393 ;; This function calls:
  6394 ;;		Nothing
  6395 ;; This function is called by:
  6396 ;;		_start_routine
  6397 ;; This function uses a non-reentrant model
  6398 ;;
  6399                           
  6400                           	psect	text12
  6401  001C86                     __ptext12:
  6402                           	opt stack 0
  6403  001C86                     _Eeprom_Write_Byte:
  6404                           	opt stack 27
  6405                           
  6406                           ;incstack = 0
  6407                           ;Eeprom_Write_Byte@address stored from wreg
  6408  001C86  6E19               	movwf	Eeprom_Write_Byte@address,c
  6409                           
  6410                           ;eeprom.h: 46: EEADR = (unsigned char)address;
  6411  001C88  C019  FFA9         	movff	Eeprom_Write_Byte@address,4009	;volatile
  6412                           
  6413                           ;eeprom.h: 48: EEDATA = data;
  6414  001C8C  C018  FFA8         	movff	Eeprom_Write_Byte@data,4008	;volatile
  6415                           
  6416                           ;eeprom.h: 49: EECON1bits.EEPGD = 0;
  6417  001C90  9EA6               	bcf	4006,7,c	;volatile
  6418                           
  6419                           ;eeprom.h: 50: EECON1bits.CFGS = 0;
  6420  001C92  9CA6               	bcf	4006,6,c	;volatile
  6421                           
  6422                           ;eeprom.h: 51: EECON1bits.WREN = 1;
  6423  001C94  84A6               	bsf	4006,2,c	;volatile
  6424                           
  6425                           ;eeprom.h: 55: EECON2 = 0x55;
  6426  001C96  0E55               	movlw	85
  6427  001C98  6EA7               	movwf	4007,c	;volatile
  6428                           
  6429                           ;eeprom.h: 56: EECON2 = 0xAA;
  6430  001C9A  0EAA               	movlw	170
  6431  001C9C  6EA7               	movwf	4007,c	;volatile
  6432                           
  6433                           ;eeprom.h: 57: EECON1bits.WR = 1;
  6434  001C9E  82A6               	bsf	4006,1,c	;volatile
  6435  001CA0                     l153:
  6436  001CA0  A8A1               	btfss	4001,4,c	;volatile
  6437  001CA2  D7FE               	goto	l153
  6438                           
  6439                           ;eeprom.h: 63: }
  6440                           ;eeprom.h: 65: PIR2bits.EEIF = 0;
  6441  001CA4  98A1               	bcf	4001,4,c	;volatile
  6442                           
  6443                           ;eeprom.h: 66: EECON1bits.WREN = 0;
  6444  001CA6  94A6               	bcf	4006,2,c	;volatile
  6445  001CA8  0012               	return		;funcret
  6446  001CAA                     __end_of_Eeprom_Write_Byte:
  6447                           	opt stack 0
  6448                           tblptru	equ	0xFF8
  6449                           tblptrh	equ	0xFF7
  6450                           tblptrl	equ	0xFF6
  6451                           tablat	equ	0xFF5
  6452                           prodh	equ	0xFF4
  6453                           prodl	equ	0xFF3
  6454                           indf0	equ	0xFEF
  6455                           postinc0	equ	0xFEE
  6456                           fsr0h	equ	0xFEA
  6457                           fsr0l	equ	0xFE9
  6458                           wreg	equ	0xFE8
  6459                           indf1	equ	0xFE7
  6460                           postinc1	equ	0xFE6
  6461                           postdec1	equ	0xFE5
  6462                           plusw1	equ	0xFE3
  6463                           fsr1h	equ	0xFE2
  6464                           fsr1l	equ	0xFE1
  6465                           indf2	equ	0xFDF
  6466                           postinc2	equ	0xFDE
  6467                           plusw2	equ	0xFDB
  6468                           fsr2h	equ	0xFDA
  6469                           fsr2l	equ	0xFD9
  6470                           status	equ	0xFD8
  6471                           
  6472 ;; *************** function _mcu_initialise *****************
  6473 ;; Defined at:
  6474 ;;		line 243 in file "main.c"
  6475 ;; Parameters:    Size  Location     Type
  6476 ;;		None
  6477 ;; Auto vars:     Size  Location     Type
  6478 ;;		None
  6479 ;; Return value:  Size  Location     Type
  6480 ;;                  1    wreg      void 
  6481 ;; Registers used:
  6482 ;;		wreg, status,2, status,0, prodl, prodh, cstack
  6483 ;; Tracked objects:
  6484 ;;		On entry : 0/0
  6485 ;;		On exit  : 0/0
  6486 ;;		Unchanged: 0/0
  6487 ;; Data sizes:     COMRAM   BANK0   BANK1   BANK2   BANK3   BANK4   BANK5
  6488 ;;      Params:         0       0       0       0       0       0       0
  6489 ;;      Locals:         0       0       0       0       0       0       0
  6490 ;;      Temps:          0       0       0       0       0       0       0
  6491 ;;      Totals:         0       0       0       0       0       0       0
  6492 ;;Total ram usage:        0 bytes
  6493 ;; Hardware stack levels used:    1
  6494 ;; Hardware stack levels required when called:    3
  6495 ;; This function calls:
  6496 ;;		_Eeprom_Read_Byte
  6497 ;; This function is called by:
  6498 ;;		_main
  6499 ;; This function uses a non-reentrant model
  6500 ;;
  6501                           
  6502                           	psect	text13
  6503  001B74                     __ptext13:
  6504                           	opt stack 0
  6505  001B74                     _mcu_initialise:
  6506                           	opt stack 27
  6507                           
  6508                           ;main.c: 246: I2C_ADDR = Eeprom_Read_Byte(EEP_I2C_ADDR);
  6509                           
  6510                           ;incstack = 0
  6511  001B74  0100               	movlb	0	; () banked
  6512  001B76  51DC               	movf	_EEP_I2C_ADDR& (0+255),w,b
  6513  001B78  EC82  F00E         	call	_Eeprom_Read_Byte
  6514  001B7C  0100               	movlb	0	; () banked
  6515  001B7E  6FDE               	movwf	_I2C_ADDR& (0+255),b
  6516                           
  6517                           ; BSR set to: 0
  6518                           ;main.c: 247: Machine_ID = I2C_ADDR - 0x0F;
  6519  001B80  0100               	movlb	0	; () banked
  6520  001B82  51DE               	movf	_I2C_ADDR& (0+255),w,b
  6521  001B84  0FF1               	addlw	241
  6522  001B86  0100               	movlb	0	; () banked
  6523  001B88  6FDF               	movwf	_Machine_ID& (0+255),b
  6524                           
  6525                           ; BSR set to: 0
  6526                           ;main.c: 250: OSCCON = 0x60;
  6527  001B8A  0E60               	movlw	96
  6528  001B8C  6ED3               	movwf	4051,c	;volatile
  6529                           
  6530                           ; BSR set to: 0
  6531                           ;main.c: 251: OSCTUNEbits.PLLEN = 0;
  6532  001B8E  9C9B               	bcf	3995,6,c	;volatile
  6533                           
  6534                           ; BSR set to: 0
  6535                           ;main.c: 253: TRISA = 0x00;
  6536  001B90  0E00               	movlw	0
  6537  001B92  6E92               	movwf	3986,c	;volatile
  6538                           
  6539                           ; BSR set to: 0
  6540                           ;main.c: 254: TRISB = 0x01;
  6541  001B94  0E01               	movlw	1
  6542  001B96  6E93               	movwf	3987,c	;volatile
  6543                           
  6544                           ; BSR set to: 0
  6545                           ;main.c: 255: TRISC = 0b00011000;
  6546  001B98  0E18               	movlw	24
  6547  001B9A  6E94               	movwf	3988,c	;volatile
  6548                           
  6549                           ; BSR set to: 0
  6550                           ;main.c: 256: TRISD = 0x00;
  6551  001B9C  0E00               	movlw	0
  6552  001B9E  6E95               	movwf	3989,c	;volatile
  6553                           
  6554                           ; BSR set to: 0
  6555                           ;main.c: 257: LATC = 0b00011000;
  6556  001BA0  0E18               	movlw	24
  6557  001BA2  6E8B               	movwf	3979,c	;volatile
  6558                           
  6559                           ; BSR set to: 0
  6560                           ;main.c: 259: SSPADD = I2C_ADDR * 2;
  6561  001BA4  0100               	movlb	0	; () banked
  6562  001BA6  51DE               	movf	_I2C_ADDR& (0+255),w,b
  6563  001BA8  0D02               	mullw	2
  6564  001BAA  CFF3 FFC8          	movff	prodl,4040	;volatile
  6565                           
  6566                           ; BSR set to: 0
  6567                           ;main.c: 260: SSPCON1 = 0x36;
  6568  001BAE  0E36               	movlw	54
  6569  001BB0  6EC6               	movwf	4038,c	;volatile
  6570                           
  6571                           ; BSR set to: 0
  6572                           ;main.c: 263: SSPSTAT = 0x00;
  6573  001BB2  0E00               	movlw	0
  6574  001BB4  6EC7               	movwf	4039,c	;volatile
  6575                           
  6576                           ; BSR set to: 0
  6577                           ;main.c: 264: SSPCON2 = 0x01;
  6578  001BB6  0E01               	movlw	1
  6579  001BB8  6EC5               	movwf	4037,c	;volatile
  6580                           
  6581                           ; BSR set to: 0
  6582                           ;main.c: 266: PIR1bits.SSPIF = 0;
  6583  001BBA  969E               	bcf	3998,3,c	;volatile
  6584                           
  6585                           ; BSR set to: 0
  6586                           ;main.c: 267: PIE1bits.SSPIE = 1;
  6587  001BBC  869D               	bsf	3997,3,c	;volatile
  6588                           
  6589                           ; BSR set to: 0
  6590                           ;main.c: 268: INTCONbits.GIE_GIEH = 1;
  6591  001BBE  8EF2               	bsf	intcon,7,c	;volatile
  6592                           
  6593                           ; BSR set to: 0
  6594                           ;main.c: 269: INTCONbits.PEIE_GIEL = 1;
  6595  001BC0  8CF2               	bsf	intcon,6,c	;volatile
  6596                           
  6597                           ; BSR set to: 0
  6598  001BC2  0012               	return		;funcret
  6599  001BC4                     __end_of_mcu_initialise:
  6600                           	opt stack 0
  6601                           tblptru	equ	0xFF8
  6602                           tblptrh	equ	0xFF7
  6603                           tblptrl	equ	0xFF6
  6604                           tablat	equ	0xFF5
  6605                           prodh	equ	0xFF4
  6606                           prodl	equ	0xFF3
  6607                           intcon	equ	0xFF2
  6608                           indf0	equ	0xFEF
  6609                           postinc0	equ	0xFEE
  6610                           fsr0h	equ	0xFEA
  6611                           fsr0l	equ	0xFE9
  6612                           wreg	equ	0xFE8
  6613                           indf1	equ	0xFE7
  6614                           postinc1	equ	0xFE6
  6615                           postdec1	equ	0xFE5
  6616                           plusw1	equ	0xFE3
  6617                           fsr1h	equ	0xFE2
  6618                           fsr1l	equ	0xFE1
  6619                           indf2	equ	0xFDF
  6620                           postinc2	equ	0xFDE
  6621                           plusw2	equ	0xFDB
  6622                           fsr2h	equ	0xFDA
  6623                           fsr2l	equ	0xFD9
  6624                           status	equ	0xFD8
  6625                           
  6626 ;; *************** function _Eeprom_Read_Byte *****************
  6627 ;; Defined at:
  6628 ;;		line 20 in file "eeprom.h"
  6629 ;; Parameters:    Size  Location     Type
  6630 ;;  address         1    wreg     unsigned char 
  6631 ;; Auto vars:     Size  Location     Type
  6632 ;;  address         1   23[COMRAM] unsigned char 
  6633 ;; Return value:  Size  Location     Type
  6634 ;;                  1    wreg      unsigned char 
  6635 ;; Registers used:
  6636 ;;		wreg, status,2
  6637 ;; Tracked objects:
  6638 ;;		On entry : 0/0
  6639 ;;		On exit  : 0/0
  6640 ;;		Unchanged: 0/0
  6641 ;; Data sizes:     COMRAM   BANK0   BANK1   BANK2   BANK3   BANK4   BANK5
  6642 ;;      Params:         0       0       0       0       0       0       0
  6643 ;;      Locals:         1       0       0       0       0       0       0
  6644 ;;      Temps:          0       0       0       0       0       0       0
  6645 ;;      Totals:         1       0       0       0       0       0       0
  6646 ;;Total ram usage:        1 bytes
  6647 ;; Hardware stack levels used:    1
  6648 ;; Hardware stack levels required when called:    2
  6649 ;; This function calls:
  6650 ;;		Nothing
  6651 ;; This function is called by:
  6652 ;;		_mcu_initialise
  6653 ;; This function uses a non-reentrant model
  6654 ;;
  6655                           
  6656                           	psect	text14
  6657  001D04                     __ptext14:
  6658                           	opt stack 0
  6659  001D04                     _Eeprom_Read_Byte:
  6660                           	opt stack 27
  6661                           
  6662                           ; BSR set to: 0
  6663                           ;incstack = 0
  6664                           ;Eeprom_Read_Byte@address stored from wreg
  6665  001D04  6E18               	movwf	Eeprom_Read_Byte@address,c
  6666                           
  6667                           ;eeprom.h: 24: EEADR = (unsigned char)address;
  6668  001D06  C018  FFA9         	movff	Eeprom_Read_Byte@address,4009	;volatile
  6669                           
  6670                           ;eeprom.h: 26: EECON1bits.EEPGD = 0;
  6671  001D0A  9EA6               	bcf	4006,7,c	;volatile
  6672                           
  6673                           ;eeprom.h: 27: EECON1bits.CFGS = 0;
  6674  001D0C  9CA6               	bcf	4006,6,c	;volatile
  6675                           
  6676                           ;eeprom.h: 28: EECON1bits.RD = 1;
  6677  001D0E  80A6               	bsf	4006,0,c	;volatile
  6678  001D10                     l147:
  6679  001D10  B0A6               	btfsc	4006,0,c	;volatile
  6680  001D12  D7FE               	goto	l147
  6681                           
  6682                           ;eeprom.h: 34: return EEDATA;
  6683  001D14  50A8               	movf	4008,w,c	;volatile
  6684  001D16  0012               	return		;funcret
  6685  001D18                     __end_of_Eeprom_Read_Byte:
  6686                           	opt stack 0
  6687                           tblptru	equ	0xFF8
  6688                           tblptrh	equ	0xFF7
  6689                           tblptrl	equ	0xFF6
  6690                           tablat	equ	0xFF5
  6691                           prodh	equ	0xFF4
  6692                           prodl	equ	0xFF3
  6693                           intcon	equ	0xFF2
  6694                           indf0	equ	0xFEF
  6695                           postinc0	equ	0xFEE
  6696                           fsr0h	equ	0xFEA
  6697                           fsr0l	equ	0xFE9
  6698                           wreg	equ	0xFE8
  6699                           indf1	equ	0xFE7
  6700                           postinc1	equ	0xFE6
  6701                           postdec1	equ	0xFE5
  6702                           plusw1	equ	0xFE3
  6703                           fsr1h	equ	0xFE2
  6704                           fsr1l	equ	0xFE1
  6705                           indf2	equ	0xFDF
  6706                           postinc2	equ	0xFDE
  6707                           plusw2	equ	0xFDB
  6708                           fsr2h	equ	0xFDA
  6709                           fsr2l	equ	0xFD9
  6710                           status	equ	0xFD8
  6711                           
  6712 ;; *************** function _Lcd_Init *****************
  6713 ;; Defined at:
  6714 ;;		line 76 in file "lcd.h"
  6715 ;; Parameters:    Size  Location     Type
  6716 ;;		None
  6717 ;; Auto vars:     Size  Location     Type
  6718 ;;		None
  6719 ;; Return value:  Size  Location     Type
  6720 ;;                  1    wreg      void 
  6721 ;; Registers used:
  6722 ;;		wreg, status,2, cstack
  6723 ;; Tracked objects:
  6724 ;;		On entry : 0/0
  6725 ;;		On exit  : 0/0
  6726 ;;		Unchanged: 0/0
  6727 ;; Data sizes:     COMRAM   BANK0   BANK1   BANK2   BANK3   BANK4   BANK5
  6728 ;;      Params:         0       0       0       0       0       0       0
  6729 ;;      Locals:         0       0       0       0       0       0       0
  6730 ;;      Temps:          1       0       0       0       0       0       0
  6731 ;;      Totals:         1       0       0       0       0       0       0
  6732 ;;Total ram usage:        1 bytes
  6733 ;; Hardware stack levels used:    1
  6734 ;; Hardware stack levels required when called:    4
  6735 ;; This function calls:
  6736 ;;		_Lcd_Cmd
  6737 ;;		_Lcd_Port
  6738 ;; This function is called by:
  6739 ;;		_main
  6740 ;; This function uses a non-reentrant model
  6741 ;;
  6742                           
  6743                           	psect	text15
  6744  001998                     __ptext15:
  6745                           	opt stack 0
  6746  001998                     _Lcd_Init:
  6747                           	opt stack 26
  6748                           
  6749                           ;lcd.h: 78: Lcd_Port(0x00);
  6750                           
  6751                           ;incstack = 0
  6752  001998  0E00               	movlw	0
  6753  00199A  EC1A  F00E         	call	_Lcd_Port
  6754                           
  6755                           ;lcd.h: 79: _delay((unsigned long)((20)*(16000000/4000.0)));
  6756  00199E  0E68               	movlw	104
  6757  0019A0  6E1A               	movwf	??_Lcd_Init& (0+255),c
  6758  0019A2  0EE4               	movlw	228
  6759  0019A4                     u4717:
  6760  0019A4  2EE8               	decfsz	wreg,f,c
  6761  0019A6  D7FE               	goto	u4717
  6762  0019A8  2E1A               	decfsz	??_Lcd_Init& (0+255),f,c
  6763  0019AA  D7FC               	goto	u4717
  6764  0019AC  F000 F000          	nop2	
  6765                           
  6766                           ;lcd.h: 80: Lcd_Cmd(0x03);
  6767  0019B0  0E03               	movlw	3
  6768  0019B2  EC76  F00E         	call	_Lcd_Cmd
  6769                           
  6770                           ;lcd.h: 81: _delay((unsigned long)((5)*(16000000/4000.0)));
  6771  0019B6  0E1A               	movlw	26
  6772  0019B8  6E1A               	movwf	??_Lcd_Init& (0+255),c
  6773  0019BA  0EF8               	movlw	248
  6774  0019BC                     u4727:
  6775  0019BC  2EE8               	decfsz	wreg,f,c
  6776  0019BE  D7FE               	goto	u4727
  6777  0019C0  2E1A               	decfsz	??_Lcd_Init& (0+255),f,c
  6778  0019C2  D7FC               	goto	u4727
  6779  0019C4  F000 F000          	nop2	
  6780                           
  6781                           ;lcd.h: 82: Lcd_Cmd(0x03);
  6782  0019C8  0E03               	movlw	3
  6783  0019CA  EC76  F00E         	call	_Lcd_Cmd
  6784                           
  6785                           ;lcd.h: 83: _delay((unsigned long)((11)*(16000000/4000.0)));
  6786  0019CE  0E3A               	movlw	58
  6787  0019D0  6E1A               	movwf	??_Lcd_Init& (0+255),c
  6788  0019D2  0E23               	movlw	35
  6789  0019D4                     u4737:
  6790  0019D4  2EE8               	decfsz	wreg,f,c
  6791  0019D6  D7FE               	goto	u4737
  6792  0019D8  2E1A               	decfsz	??_Lcd_Init& (0+255),f,c
  6793  0019DA  D7FC               	goto	u4737
  6794  0019DC  F000               	nop	
  6795                           
  6796                           ;lcd.h: 84: Lcd_Cmd(0x03);
  6797  0019DE  0E03               	movlw	3
  6798  0019E0  EC76  F00E         	call	_Lcd_Cmd
  6799                           
  6800                           ;lcd.h: 86: Lcd_Cmd(0x02);
  6801  0019E4  0E02               	movlw	2
  6802  0019E6  EC76  F00E         	call	_Lcd_Cmd
  6803                           
  6804                           ;lcd.h: 87: Lcd_Cmd(0x02);
  6805  0019EA  0E02               	movlw	2
  6806  0019EC  EC76  F00E         	call	_Lcd_Cmd
  6807                           
  6808                           ;lcd.h: 88: Lcd_Cmd(0x08);
  6809  0019F0  0E08               	movlw	8
  6810  0019F2  EC76  F00E         	call	_Lcd_Cmd
  6811                           
  6812                           ;lcd.h: 89: Lcd_Cmd(0x00);
  6813  0019F6  0E00               	movlw	0
  6814  0019F8  EC76  F00E         	call	_Lcd_Cmd
  6815                           
  6816                           ;lcd.h: 90: Lcd_Cmd(0x0C);
  6817  0019FC  0E0C               	movlw	12
  6818  0019FE  EC76  F00E         	call	_Lcd_Cmd
  6819                           
  6820                           ;lcd.h: 91: Lcd_Cmd(0x00);
  6821  001A02  0E00               	movlw	0
  6822  001A04  EC76  F00E         	call	_Lcd_Cmd
  6823                           
  6824                           ;lcd.h: 92: Lcd_Cmd(0x06);
  6825  001A08  0E06               	movlw	6
  6826  001A0A  EC76  F00E         	call	_Lcd_Cmd
  6827  001A0E  0012               	return		;funcret
  6828  001A10                     __end_of_Lcd_Init:
  6829                           	opt stack 0
  6830                           tblptru	equ	0xFF8
  6831                           tblptrh	equ	0xFF7
  6832                           tblptrl	equ	0xFF6
  6833                           tablat	equ	0xFF5
  6834                           prodh	equ	0xFF4
  6835                           prodl	equ	0xFF3
  6836                           intcon	equ	0xFF2
  6837                           indf0	equ	0xFEF
  6838                           postinc0	equ	0xFEE
  6839                           fsr0h	equ	0xFEA
  6840                           fsr0l	equ	0xFE9
  6841                           wreg	equ	0xFE8
  6842                           indf1	equ	0xFE7
  6843                           postinc1	equ	0xFE6
  6844                           postdec1	equ	0xFE5
  6845                           plusw1	equ	0xFE3
  6846                           fsr1h	equ	0xFE2
  6847                           fsr1l	equ	0xFE1
  6848                           indf2	equ	0xFDF
  6849                           postinc2	equ	0xFDE
  6850                           plusw2	equ	0xFDB
  6851                           fsr2h	equ	0xFDA
  6852                           fsr2l	equ	0xFD9
  6853                           status	equ	0xFD8
  6854                           
  6855 ;; *************** function _Lcd_Cmd *****************
  6856 ;; Defined at:
  6857 ;;		line 38 in file "lcd.h"
  6858 ;; Parameters:    Size  Location     Type
  6859 ;;  a               1    wreg     unsigned char 
  6860 ;; Auto vars:     Size  Location     Type
  6861 ;;  a               1   24[COMRAM] unsigned char 
  6862 ;; Return value:  Size  Location     Type
  6863 ;;                  1    wreg      void 
  6864 ;; Registers used:
  6865 ;;		wreg, status,2, cstack
  6866 ;; Tracked objects:
  6867 ;;		On entry : 0/0
  6868 ;;		On exit  : 0/0
  6869 ;;		Unchanged: 0/0
  6870 ;; Data sizes:     COMRAM   BANK0   BANK1   BANK2   BANK3   BANK4   BANK5
  6871 ;;      Params:         0       0       0       0       0       0       0
  6872 ;;      Locals:         1       0       0       0       0       0       0
  6873 ;;      Temps:          0       0       0       0       0       0       0
  6874 ;;      Totals:         1       0       0       0       0       0       0
  6875 ;;Total ram usage:        1 bytes
  6876 ;; Hardware stack levels used:    1
  6877 ;; Hardware stack levels required when called:    3
  6878 ;; This function calls:
  6879 ;;		_Lcd_Port
  6880 ;; This function is called by:
  6881 ;;		_Lcd_Clear
  6882 ;;		_Lcd_Set_Cursor
  6883 ;;		_Lcd_Init
  6884 ;;		_Lcd_Shift_Right
  6885 ;;		_Lcd_Shift_Left
  6886 ;; This function uses a non-reentrant model
  6887 ;;
  6888                           
  6889                           	psect	text16
  6890  001CEC                     __ptext16:
  6891                           	opt stack 0
  6892  001CEC                     _Lcd_Cmd:
  6893                           	opt stack 24
  6894                           
  6895                           ;incstack = 0
  6896                           ;Lcd_Cmd@a stored from wreg
  6897  001CEC  6E19               	movwf	Lcd_Cmd@a,c
  6898                           
  6899                           ;lcd.h: 40: PORTDbits.RD5 = 0;
  6900  001CEE  9A83               	bcf	3971,5,c	;volatile
  6901                           
  6902                           ;lcd.h: 41: Lcd_Port(a);
  6903  001CF0  5019               	movf	Lcd_Cmd@a,w,c
  6904  001CF2  EC1A  F00E         	call	_Lcd_Port
  6905                           
  6906                           ;lcd.h: 42: PORTDbits.RD4 = 1;
  6907  001CF6  8883               	bsf	3971,4,c	;volatile
  6908                           
  6909                           ;lcd.h: 44: _delay((unsigned long)((200)*(16000000/4000000.0)));
  6910  001CF8  0EC8               	movlw	200
  6911  001CFA                     u4747:
  6912  001CFA  F000               	nop	
  6913  001CFC  2EE8               	decfsz	wreg,f,c
  6914  001CFE  D7FD               	goto	u4747
  6915                           
  6916                           ;lcd.h: 45: PORTDbits.RD4 = 0;
  6917  001D00  9883               	bcf	3971,4,c	;volatile
  6918  001D02  0012               	return		;funcret
  6919  001D04                     __end_of_Lcd_Cmd:
  6920                           	opt stack 0
  6921                           tblptru	equ	0xFF8
  6922                           tblptrh	equ	0xFF7
  6923                           tblptrl	equ	0xFF6
  6924                           tablat	equ	0xFF5
  6925                           prodh	equ	0xFF4
  6926                           prodl	equ	0xFF3
  6927                           intcon	equ	0xFF2
  6928                           indf0	equ	0xFEF
  6929                           postinc0	equ	0xFEE
  6930                           fsr0h	equ	0xFEA
  6931                           fsr0l	equ	0xFE9
  6932                           wreg	equ	0xFE8
  6933                           indf1	equ	0xFE7
  6934                           postinc1	equ	0xFE6
  6935                           postdec1	equ	0xFE5
  6936                           plusw1	equ	0xFE3
  6937                           fsr1h	equ	0xFE2
  6938                           fsr1l	equ	0xFE1
  6939                           indf2	equ	0xFDF
  6940                           postinc2	equ	0xFDE
  6941                           plusw2	equ	0xFDB
  6942                           fsr2h	equ	0xFDA
  6943                           fsr2l	equ	0xFD9
  6944                           status	equ	0xFD8
  6945                           
  6946 ;; *************** function _Lcd_Port *****************
  6947 ;; Defined at:
  6948 ;;		line 16 in file "lcd.h"
  6949 ;; Parameters:    Size  Location     Type
  6950 ;;  a               1    wreg     unsigned char 
  6951 ;; Auto vars:     Size  Location     Type
  6952 ;;  a               1   23[COMRAM] unsigned char 
  6953 ;; Return value:  Size  Location     Type
  6954 ;;                  1    wreg      void 
  6955 ;; Registers used:
  6956 ;;		wreg
  6957 ;; Tracked objects:
  6958 ;;		On entry : 0/0
  6959 ;;		On exit  : 0/0
  6960 ;;		Unchanged: 0/0
  6961 ;; Data sizes:     COMRAM   BANK0   BANK1   BANK2   BANK3   BANK4   BANK5
  6962 ;;      Params:         0       0       0       0       0       0       0
  6963 ;;      Locals:         1       0       0       0       0       0       0
  6964 ;;      Temps:          0       0       0       0       0       0       0
  6965 ;;      Totals:         1       0       0       0       0       0       0
  6966 ;;Total ram usage:        1 bytes
  6967 ;; Hardware stack levels used:    1
  6968 ;; Hardware stack levels required when called:    2
  6969 ;; This function calls:
  6970 ;;		Nothing
  6971 ;; This function is called by:
  6972 ;;		_Lcd_Cmd
  6973 ;;		_Lcd_Init
  6974 ;;		_Lcd_Write_Char
  6975 ;; This function uses a non-reentrant model
  6976 ;;
  6977                           
  6978                           	psect	text17
  6979  001C34                     __ptext17:
  6980                           	opt stack 0
  6981  001C34                     _Lcd_Port:
  6982                           	opt stack 24
  6983                           
  6984                           ;incstack = 0
  6985                           ;Lcd_Port@a stored from wreg
  6986  001C34  6E18               	movwf	Lcd_Port@a,c
  6987                           
  6988                           ;lcd.h: 18: if(a & 1)
  6989  001C36  A018               	btfss	Lcd_Port@a,0,c
  6990  001C38  D002               	goto	l69
  6991                           
  6992                           ;lcd.h: 19: PORTDbits.RD0 = 1;
  6993  001C3A  8083               	bsf	3971,0,c	;volatile
  6994  001C3C  D001               	goto	l3445
  6995  001C3E                     l69:
  6996                           
  6997                           ;lcd.h: 20: else
  6998                           ;lcd.h: 21: PORTDbits.RD0 = 0;
  6999  001C3E  9083               	bcf	3971,0,c	;volatile
  7000  001C40                     l3445:
  7001                           
  7002                           ;lcd.h: 23: if(a & 2)
  7003  001C40  A218               	btfss	Lcd_Port@a,1,c
  7004  001C42  D002               	goto	l71
  7005                           
  7006                           ;lcd.h: 24: PORTDbits.RD1 = 1;
  7007  001C44  8283               	bsf	3971,1,c	;volatile
  7008  001C46  D001               	goto	l3449
  7009  001C48                     l71:
  7010                           
  7011                           ;lcd.h: 25: else
  7012                           ;lcd.h: 26: PORTDbits.RD1 = 0;
  7013  001C48  9283               	bcf	3971,1,c	;volatile
  7014  001C4A                     l3449:
  7015                           
  7016                           ;lcd.h: 28: if(a & 4)
  7017  001C4A  A418               	btfss	Lcd_Port@a,2,c
  7018  001C4C  D002               	goto	l73
  7019                           
  7020                           ;lcd.h: 29: PORTDbits.RD2 = 1;
  7021  001C4E  8483               	bsf	3971,2,c	;volatile
  7022  001C50  D001               	goto	l3453
  7023  001C52                     l73:
  7024                           
  7025                           ;lcd.h: 30: else
  7026                           ;lcd.h: 31: PORTDbits.RD2 = 0;
  7027  001C52  9483               	bcf	3971,2,c	;volatile
  7028  001C54                     l3453:
  7029                           
  7030                           ;lcd.h: 33: if(a & 8)
  7031  001C54  A618               	btfss	Lcd_Port@a,3,c
  7032  001C56  D002               	goto	l75
  7033                           
  7034                           ;lcd.h: 34: PORTDbits.RD3 = 1;
  7035  001C58  8683               	bsf	3971,3,c	;volatile
  7036  001C5A  0012               	return	
  7037  001C5C                     l75:
  7038                           
  7039                           ;lcd.h: 35: else
  7040                           ;lcd.h: 36: PORTDbits.RD3 = 0;
  7041  001C5C  9683               	bcf	3971,3,c	;volatile
  7042  001C5E  0012               	return	
  7043  001C60                     __end_of_Lcd_Port:
  7044                           	opt stack 0
  7045                           tblptru	equ	0xFF8
  7046                           tblptrh	equ	0xFF7
  7047                           tblptrl	equ	0xFF6
  7048                           tablat	equ	0xFF5
  7049                           prodh	equ	0xFF4
  7050                           prodl	equ	0xFF3
  7051                           intcon	equ	0xFF2
  7052                           indf0	equ	0xFEF
  7053                           postinc0	equ	0xFEE
  7054                           fsr0h	equ	0xFEA
  7055                           fsr0l	equ	0xFE9
  7056                           wreg	equ	0xFE8
  7057                           indf1	equ	0xFE7
  7058                           postinc1	equ	0xFE6
  7059                           postdec1	equ	0xFE5
  7060                           plusw1	equ	0xFE3
  7061                           fsr1h	equ	0xFE2
  7062                           fsr1l	equ	0xFE1
  7063                           indf2	equ	0xFDF
  7064                           postinc2	equ	0xFDE
  7065                           plusw2	equ	0xFDB
  7066                           fsr2h	equ	0xFDA
  7067                           fsr2l	equ	0xFD9
  7068                           status	equ	0xFD8
  7069                           
  7070 ;; *************** function _ISR *****************
  7071 ;; Defined at:
  7072 ;;		line 323 in file "main.c"
  7073 ;; Parameters:    Size  Location     Type
  7074 ;;		None
  7075 ;; Auto vars:     Size  Location     Type
  7076 ;;  sspBuf          1   22[COMRAM] unsigned char 
  7077 ;; Return value:  Size  Location     Type
  7078 ;;                  1    wreg      void 
  7079 ;; Registers used:
  7080 ;;		wreg, fsr1l, fsr1h, fsr2l, fsr2h, status,2, status,0, prodl, prodh, cstack
  7081 ;; Tracked objects:
  7082 ;;		On entry : 0/0
  7083 ;;		On exit  : 0/0
  7084 ;;		Unchanged: 0/0
  7085 ;; Data sizes:     COMRAM   BANK0   BANK1   BANK2   BANK3   BANK4   BANK5
  7086 ;;      Params:         0       0       0       0       0       0       0
  7087 ;;      Locals:         1       0       0       0       0       0       0
  7088 ;;      Temps:         14       0       0       0       0       0       0
  7089 ;;      Totals:        15       0       0       0       0       0       0
  7090 ;;Total ram usage:       15 bytes
  7091 ;; Hardware stack levels used:    1
  7092 ;; Hardware stack levels required when called:    1
  7093 ;; This function calls:
  7094 ;;		_load_reg_map
  7095 ;; This function is called by:
  7096 ;;		Interrupt level 2
  7097 ;; This function uses a non-reentrant model
  7098 ;;
  7099                           
  7100                           	psect	intcode
  7101  000008                     __pintcode:
  7102                           	opt stack 0
  7103  000008                     _ISR:
  7104                           	opt stack 24
  7105                           
  7106                           ;incstack = 0
  7107  000008  8240               	bsf	btemp,1,c	;set compiler interrupt flag (level 2)
  7108  00000A  CFFA F009          	movff	pclath,??_ISR
  7109  00000E  CFFB F00A          	movff	pclatu,??_ISR+1
  7110  000012  CFE9 F00B          	movff	fsr0l,??_ISR+2
  7111  000016  CFEA F00C          	movff	fsr0h,??_ISR+3
  7112  00001A  CFE1 F00D          	movff	fsr1l,??_ISR+4
  7113  00001E  CFE2 F00E          	movff	fsr1h,??_ISR+5
  7114  000022  CFD9 F00F          	movff	fsr2l,??_ISR+6
  7115  000026  CFDA F010          	movff	fsr2h,??_ISR+7
  7116  00002A  CFF3 F011          	movff	prodl,??_ISR+8
  7117  00002E  CFF4 F012          	movff	prodh,??_ISR+9
  7118  000032  CFF6 F013          	movff	tblptrl,??_ISR+10
  7119  000036  CFF7 F014          	movff	tblptrh,??_ISR+11
  7120  00003A  CFF8 F015          	movff	tblptru,??_ISR+12
  7121  00003E  CFF5 F016          	movff	tablat,??_ISR+13
  7122                           
  7123                           ;main.c: 325: unsigned char sspBuf;
  7124                           ;main.c: 326: load_reg_map();
  7125  000042  ECF8  F00B         	call	_load_reg_map	;wreg free
  7126                           
  7127                           ;main.c: 327: if (PIR1bits.SSPIF) {
  7128  000046  A69E               	btfss	3998,3,c	;volatile
  7129  000048  D03E               	goto	i2l290
  7130                           
  7131                           ;main.c: 329: if (!SSPSTATbits.D_NOT_A) {
  7132  00004A  BAC7               	btfsc	4039,5,c	;volatile
  7133  00004C  D013               	goto	i2l3413
  7134                           
  7135                           ;main.c: 333: i2c_byte_count = 0;
  7136  00004E  0E00               	movlw	0
  7137  000050  6E3E               	movwf	_i2c_byte_count,c	;volatile
  7138                           
  7139                           ;main.c: 335: if (SSPSTATbits.BF) {
  7140  000052  B0C7               	btfsc	4039,0,c	;volatile
  7141                           
  7142                           ;main.c: 337: sspBuf = SSPBUF;
  7143  000054  CFC9 F017          	movff	4041,ISR@sspBuf	;volatile
  7144                           
  7145                           ;main.c: 338: }
  7146                           ;main.c: 340: if (SSPSTATbits.R_NOT_W) {
  7147  000058  A4C7               	btfss	4039,2,c	;volatile
  7148  00005A  D031               	goto	i2l3435
  7149                           
  7150                           ;main.c: 342: SSPCON1bits.WCOL = 0;
  7151  00005C  9EC6               	bcf	4038,7,c	;volatile
  7152                           
  7153                           ;main.c: 343: SSPBUF = i2c_r_reg[i2c_reg_addr++];
  7154  00005E  503F               	movf	_i2c_reg_addr,w,c	;volatile
  7155  000060  0D01               	mullw	1
  7156  000062  0E00               	movlw	low _i2c_r_reg
  7157  000064  24F3               	addwf	prodl,w,c
  7158  000066  6ED9               	movwf	fsr2l,c
  7159  000068  0E01               	movlw	high _i2c_r_reg
  7160  00006A  20F4               	addwfc	prodh,w,c
  7161  00006C  6EDA               	movwf	fsr2h,c
  7162  00006E  50DF               	movf	indf2,w,c
  7163  000070  6EC9               	movwf	4041,c	;volatile
  7164  000072  D024               	goto	i2l3433
  7165  000074                     i2l3413:
  7166                           
  7167                           ;main.c: 350: i2c_byte_count++;
  7168  000074  2A3E               	incf	_i2c_byte_count,f,c	;volatile
  7169                           
  7170                           ;main.c: 352: if (SSPSTATbits.BF) {
  7171  000076  B0C7               	btfsc	4039,0,c	;volatile
  7172                           
  7173                           ;main.c: 353: sspBuf = SSPBUF;
  7174  000078  CFC9 F017          	movff	4041,ISR@sspBuf	;volatile
  7175                           
  7176                           ;main.c: 354: }
  7177                           ;main.c: 356: if (SSPSTATbits.R_NOT_W) {
  7178  00007C  A4C7               	btfss	4039,2,c	;volatile
  7179  00007E  D00E               	goto	i2l3427
  7180                           
  7181                           ;main.c: 359: SSPCON1bits.WCOL = 0;
  7182  000080  9EC6               	bcf	4038,7,c	;volatile
  7183                           
  7184                           ;main.c: 360: SSPBUF = i2c_r_reg[i2c_reg_addr++];
  7185  000082  503F               	movf	_i2c_reg_addr,w,c	;volatile
  7186  000084  0D01               	mullw	1
  7187  000086  0E00               	movlw	low _i2c_r_reg
  7188  000088  24F3               	addwf	prodl,w,c
  7189  00008A  6ED9               	movwf	fsr2l,c
  7190  00008C  0E01               	movlw	high _i2c_r_reg
  7191  00008E  20F4               	addwfc	prodh,w,c
  7192  000090  6EDA               	movwf	fsr2h,c
  7193  000092  50DF               	movf	indf2,w,c
  7194  000094  6EC9               	movwf	4041,c	;volatile
  7195  000096  2A3F               	incf	_i2c_reg_addr,f,c	;volatile
  7196                           
  7197                           ;main.c: 361: LATDbits.LATD6 = 1;
  7198  000098  8C8C               	bsf	3980,6,c	;volatile
  7199                           
  7200                           ;main.c: 363: } else {
  7201  00009A  D011               	goto	i2l3435
  7202  00009C                     i2l3427:
  7203                           
  7204                           ;main.c: 365: if (i2c_byte_count == 1) {
  7205  00009C  043E               	decf	_i2c_byte_count,w,c	;volatile
  7206  00009E  A4D8               	btfss	status,2,c
  7207  0000A0  D003               	goto	i2l3431
  7208                           
  7209                           ;main.c: 367: i2c_reg_addr = sspBuf;
  7210  0000A2  C017  F03F         	movff	ISR@sspBuf,_i2c_reg_addr	;volatile
  7211                           
  7212                           ;main.c: 369: } else {
  7213  0000A6  D00B               	goto	i2l3435
  7214  0000A8                     i2l3431:
  7215                           
  7216                           ;main.c: 372: i2c_r_reg[i2c_reg_addr++] = sspBuf;
  7217  0000A8  503F               	movf	_i2c_reg_addr,w,c	;volatile
  7218  0000AA  0D01               	mullw	1
  7219  0000AC  0E00               	movlw	low _i2c_r_reg
  7220  0000AE  24F3               	addwf	prodl,w,c
  7221  0000B0  6ED9               	movwf	fsr2l,c
  7222  0000B2  0E01               	movlw	high _i2c_r_reg
  7223  0000B4  20F4               	addwfc	prodh,w,c
  7224  0000B6  6EDA               	movwf	fsr2h,c
  7225  0000B8  C017  FFDF         	movff	ISR@sspBuf,indf2
  7226  0000BC                     i2l3433:
  7227  0000BC  2A3F               	incf	_i2c_reg_addr,f,c	;volatile
  7228  0000BE                     i2l3435:
  7229                           
  7230                           ;main.c: 373: }
  7231                           ;main.c: 374: }
  7232                           ;main.c: 375: }
  7233                           ;main.c: 377: i2c_reg_addr %= sizeof(i2c_r_reg);
  7234  0000BE  0E1F               	movlw	31
  7235  0000C0  163F               	andwf	_i2c_reg_addr,f,c	;volatile
  7236                           
  7237                           ;main.c: 380: PIR1bits.SSPIF = 0;
  7238  0000C2  969E               	bcf	3998,3,c	;volatile
  7239                           
  7240                           ;main.c: 381: SSPCON1bits.CKP = 1;
  7241  0000C4  88C6               	bsf	4038,4,c	;volatile
  7242  0000C6                     i2l290:
  7243  0000C6  C016  FFF5         	movff	??_ISR+13,tablat
  7244  0000CA  C015  FFF8         	movff	??_ISR+12,tblptru
  7245  0000CE  C014  FFF7         	movff	??_ISR+11,tblptrh
  7246  0000D2  C013  FFF6         	movff	??_ISR+10,tblptrl
  7247  0000D6  C012  FFF4         	movff	??_ISR+9,prodh
  7248  0000DA  C011  FFF3         	movff	??_ISR+8,prodl
  7249  0000DE  C010  FFDA         	movff	??_ISR+7,fsr2h
  7250  0000E2  C00F  FFD9         	movff	??_ISR+6,fsr2l
  7251  0000E6  C00E  FFE2         	movff	??_ISR+5,fsr1h
  7252  0000EA  C00D  FFE1         	movff	??_ISR+4,fsr1l
  7253  0000EE  C00C  FFEA         	movff	??_ISR+3,fsr0h
  7254  0000F2  C00B  FFE9         	movff	??_ISR+2,fsr0l
  7255  0000F6  C00A  FFFB         	movff	??_ISR+1,pclatu
  7256  0000FA  C009  FFFA         	movff	??_ISR,pclath
  7257  0000FE  9240               	bcf	btemp,1,c	;clear compiler interrupt flag (level 2)
  7258  000100  0011               	retfie		f
  7259  000102                     __end_of_ISR:
  7260                           	opt stack 0
  7261                           pclatu	equ	0xFFB
  7262                           pclath	equ	0xFFA
  7263                           tblptru	equ	0xFF8
  7264                           tblptrh	equ	0xFF7
  7265                           tblptrl	equ	0xFF6
  7266                           tablat	equ	0xFF5
  7267                           prodh	equ	0xFF4
  7268                           prodl	equ	0xFF3
  7269                           intcon	equ	0xFF2
  7270                           indf0	equ	0xFEF
  7271                           postinc0	equ	0xFEE
  7272                           fsr0h	equ	0xFEA
  7273                           fsr0l	equ	0xFE9
  7274                           wreg	equ	0xFE8
  7275                           indf1	equ	0xFE7
  7276                           postinc1	equ	0xFE6
  7277                           postdec1	equ	0xFE5
  7278                           plusw1	equ	0xFE3
  7279                           fsr1h	equ	0xFE2
  7280                           fsr1l	equ	0xFE1
  7281                           indf2	equ	0xFDF
  7282                           postinc2	equ	0xFDE
  7283                           plusw2	equ	0xFDB
  7284                           fsr2h	equ	0xFDA
  7285                           fsr2l	equ	0xFD9
  7286                           status	equ	0xFD8
  7287                           
  7288 ;; *************** function _load_reg_map *****************
  7289 ;; Defined at:
  7290 ;;		line 306 in file "main.c"
  7291 ;; Parameters:    Size  Location     Type
  7292 ;;		None
  7293 ;; Auto vars:     Size  Location     Type
  7294 ;;  i               2    6[COMRAM] int 
  7295 ;;  i               2    4[COMRAM] int 
  7296 ;; Return value:  Size  Location     Type
  7297 ;;                  1    wreg      void 
  7298 ;; Registers used:
  7299 ;;		wreg, fsr1l, fsr1h, fsr2l, fsr2h, status,2, status,0
  7300 ;; Tracked objects:
  7301 ;;		On entry : 0/0
  7302 ;;		On exit  : 0/0
  7303 ;;		Unchanged: 0/0
  7304 ;; Data sizes:     COMRAM   BANK0   BANK1   BANK2   BANK3   BANK4   BANK5
  7305 ;;      Params:         0       0       0       0       0       0       0
  7306 ;;      Locals:         4       0       0       0       0       0       0
  7307 ;;      Temps:          4       0       0       0       0       0       0
  7308 ;;      Totals:         8       0       0       0       0       0       0
  7309 ;;Total ram usage:        8 bytes
  7310 ;; Hardware stack levels used:    1
  7311 ;; This function calls:
  7312 ;;		Nothing
  7313 ;; This function is called by:
  7314 ;;		_ISR
  7315 ;; This function uses a non-reentrant model
  7316 ;;
  7317                           
  7318                           	psect	text19
  7319  0017F0                     __ptext19:
  7320                           	opt stack 0
  7321  0017F0                     _load_reg_map:
  7322                           	opt stack 24
  7323                           
  7324                           ;main.c: 316: for (int i = 1; i < 10; i++)
  7325                           
  7326                           ;incstack = 0
  7327  0017F0  0E00               	movlw	0
  7328  0017F2  6E06               	movwf	load_reg_map@i+1,c
  7329  0017F4  0E01               	movlw	1
  7330  0017F6  6E05               	movwf	load_reg_map@i,c
  7331  0017F8                     i2l2983:
  7332  0017F8  BE06               	btfsc	load_reg_map@i+1,7,c
  7333  0017FA  D006               	goto	i2l2987
  7334  0017FC  5006               	movf	load_reg_map@i+1,w,c
  7335  0017FE  E121               	bnz	i2l2993
  7336  001800  0E0A               	movlw	10
  7337  001802  5C05               	subwf	load_reg_map@i,w,c
  7338  001804  B0D8               	btfsc	status,0,c
  7339  001806  D01D               	goto	i2l2993
  7340  001808                     i2l2987:
  7341                           
  7342                           ;main.c: 317: i2c_r_reg[i] = current_user[i - 1];
  7343  001808  0EFF               	movlw	255
  7344  00180A  6E01               	movwf	??_load_reg_map& (0+255),c
  7345  00180C  0EFF               	movlw	255
  7346  00180E  6E02               	movwf	(??_load_reg_map+1)& (0+255),c
  7347  001810  C005  F003         	movff	load_reg_map@i,??_load_reg_map+2
  7348  001814  C006  F004         	movff	load_reg_map@i+1,??_load_reg_map+3
  7349  001818  5001               	movf	??_load_reg_map,w,c
  7350  00181A  2603               	addwf	??_load_reg_map+2,f,c
  7351  00181C  5002               	movf	??_load_reg_map+1,w,c
  7352  00181E  2204               	addwfc	??_load_reg_map+3,f,c
  7353  001820  0ED3               	movlw	low _current_user
  7354  001822  2403               	addwf	??_load_reg_map+2,w,c
  7355  001824  6ED9               	movwf	fsr2l,c
  7356  001826  0E00               	movlw	high _current_user
  7357  001828  2004               	addwfc	??_load_reg_map+3,w,c
  7358  00182A  6EDA               	movwf	fsr2h,c
  7359  00182C  0E00               	movlw	low _i2c_r_reg
  7360  00182E  2405               	addwf	load_reg_map@i,w,c
  7361  001830  6EE1               	movwf	fsr1l,c
  7362  001832  0E01               	movlw	high _i2c_r_reg
  7363  001834  2006               	addwfc	load_reg_map@i+1,w,c
  7364  001836  6EE2               	movwf	fsr1h,c
  7365  001838  CFDF FFE7          	movff	indf2,indf1
  7366  00183C  4A05               	infsnz	load_reg_map@i,f,c
  7367  00183E  2A06               	incf	load_reg_map@i+1,f,c
  7368  001840  D7DB               	goto	i2l2983
  7369  001842                     i2l2993:
  7370                           
  7371                           ;main.c: 319: for (int i = 10; i < 19; i++)
  7372  001842  0E00               	movlw	0
  7373  001844  6E08               	movwf	load_reg_map@i_829+1,c
  7374  001846  0E0A               	movlw	10
  7375  001848  6E07               	movwf	load_reg_map@i_829,c
  7376  00184A                     i2l2995:
  7377  00184A  BE08               	btfsc	load_reg_map@i_829+1,7,c
  7378  00184C  D006               	goto	i2l2999
  7379  00184E  5008               	movf	load_reg_map@i_829+1,w,c
  7380  001850  E121               	bnz	i2l277
  7381  001852  0E13               	movlw	19
  7382  001854  5C07               	subwf	load_reg_map@i_829,w,c
  7383  001856  B0D8               	btfsc	status,0,c
  7384  001858  0012               	return	
  7385  00185A                     i2l2999:
  7386                           
  7387                           ;main.c: 320: i2c_r_reg[i] = current_pin[i - 10];
  7388  00185A  0EF6               	movlw	246
  7389  00185C  6E01               	movwf	??_load_reg_map& (0+255),c
  7390  00185E  0EFF               	movlw	255
  7391  001860  6E02               	movwf	(??_load_reg_map+1)& (0+255),c
  7392  001862  C007  F003         	movff	load_reg_map@i_829,??_load_reg_map+2
  7393  001866  C008  F004         	movff	load_reg_map@i_829+1,??_load_reg_map+3
  7394  00186A  5001               	movf	??_load_reg_map,w,c
  7395  00186C  2603               	addwf	??_load_reg_map+2,f,c
  7396  00186E  5002               	movf	??_load_reg_map+1,w,c
  7397  001870  2204               	addwfc	??_load_reg_map+3,f,c
  7398  001872  0ECA               	movlw	low _current_pin
  7399  001874  2403               	addwf	??_load_reg_map+2,w,c
  7400  001876  6ED9               	movwf	fsr2l,c
  7401  001878  0E00               	movlw	high _current_pin
  7402  00187A  2004               	addwfc	??_load_reg_map+3,w,c
  7403  00187C  6EDA               	movwf	fsr2h,c
  7404  00187E  0E00               	movlw	low _i2c_r_reg
  7405  001880  2407               	addwf	load_reg_map@i_829,w,c
  7406  001882  6EE1               	movwf	fsr1l,c
  7407  001884  0E01               	movlw	high _i2c_r_reg
  7408  001886  2008               	addwfc	load_reg_map@i_829+1,w,c
  7409  001888  6EE2               	movwf	fsr1h,c
  7410  00188A  CFDF FFE7          	movff	indf2,indf1
  7411  00188E  4A07               	infsnz	load_reg_map@i_829,f,c
  7412  001890  2A08               	incf	load_reg_map@i_829+1,f,c
  7413  001892  D7DB               	goto	i2l2995
  7414  001894                     i2l277:
  7415  001894  0012               	return		;funcret
  7416  001896                     __end_of_load_reg_map:
  7417                           	opt stack 0
  7418                           pclatu	equ	0xFFB
  7419                           pclath	equ	0xFFA
  7420                           tblptru	equ	0xFF8
  7421                           tblptrh	equ	0xFF7
  7422                           tblptrl	equ	0xFF6
  7423                           tablat	equ	0xFF5
  7424                           prodh	equ	0xFF4
  7425                           prodl	equ	0xFF3
  7426                           intcon	equ	0xFF2
  7427                           indf0	equ	0xFEF
  7428                           postinc0	equ	0xFEE
  7429                           fsr0h	equ	0xFEA
  7430                           fsr0l	equ	0xFE9
  7431                           wreg	equ	0xFE8
  7432                           indf1	equ	0xFE7
  7433                           postinc1	equ	0xFE6
  7434                           postdec1	equ	0xFE5
  7435                           plusw1	equ	0xFE3
  7436                           fsr1h	equ	0xFE2
  7437                           fsr1l	equ	0xFE1
  7438                           indf2	equ	0xFDF
  7439                           postinc2	equ	0xFDE
  7440                           plusw2	equ	0xFDB
  7441                           fsr2h	equ	0xFDA
  7442                           fsr2l	equ	0xFD9
  7443                           status	equ	0xFD8
  7444                           pclatu	equ	0xFFB
  7445                           pclath	equ	0xFFA
  7446                           tblptru	equ	0xFF8
  7447                           tblptrh	equ	0xFF7
  7448                           tblptrl	equ	0xFF6
  7449                           tablat	equ	0xFF5
  7450                           prodh	equ	0xFF4
  7451                           prodl	equ	0xFF3
  7452                           intcon	equ	0xFF2
  7453                           indf0	equ	0xFEF
  7454                           postinc0	equ	0xFEE
  7455                           fsr0h	equ	0xFEA
  7456                           fsr0l	equ	0xFE9
  7457                           wreg	equ	0xFE8
  7458                           indf1	equ	0xFE7
  7459                           postinc1	equ	0xFE6
  7460                           postdec1	equ	0xFE5
  7461                           plusw1	equ	0xFE3
  7462                           fsr1h	equ	0xFE2
  7463                           fsr1l	equ	0xFE1
  7464                           indf2	equ	0xFDF
  7465                           postinc2	equ	0xFDE
  7466                           plusw2	equ	0xFDB
  7467                           fsr2h	equ	0xFDA
  7468                           fsr2l	equ	0xFD9
  7469                           status	equ	0xFD8
  7470                           
  7471                           	psect	rparam
  7472  0000                     pclatu	equ	0xFFB
  7473                           pclath	equ	0xFFA
  7474                           tblptru	equ	0xFF8
  7475                           tblptrh	equ	0xFF7
  7476                           tblptrl	equ	0xFF6
  7477                           tablat	equ	0xFF5
  7478                           prodh	equ	0xFF4
  7479                           prodl	equ	0xFF3
  7480                           intcon	equ	0xFF2
  7481                           indf0	equ	0xFEF
  7482                           postinc0	equ	0xFEE
  7483                           fsr0h	equ	0xFEA
  7484                           fsr0l	equ	0xFE9
  7485                           wreg	equ	0xFE8
  7486                           indf1	equ	0xFE7
  7487                           postinc1	equ	0xFE6
  7488                           postdec1	equ	0xFE5
  7489                           plusw1	equ	0xFE3
  7490                           fsr1h	equ	0xFE2
  7491                           fsr1l	equ	0xFE1
  7492                           indf2	equ	0xFDF
  7493                           postinc2	equ	0xFDE
  7494                           plusw2	equ	0xFDB
  7495                           fsr2h	equ	0xFDA
  7496                           fsr2l	equ	0xFD9
  7497                           status	equ	0xFD8
  7498                           
  7499                           	psect	temp
  7500  000040                     btemp:
  7501                           	opt stack 0
  7502  000040                     	ds	1
  7503  0000                     int$flags	set	btemp
  7504                           pclatu	equ	0xFFB
  7505                           pclath	equ	0xFFA
  7506                           tblptru	equ	0xFF8
  7507                           tblptrh	equ	0xFF7
  7508                           tblptrl	equ	0xFF6
  7509                           tablat	equ	0xFF5
  7510                           prodh	equ	0xFF4
  7511                           prodl	equ	0xFF3
  7512                           intcon	equ	0xFF2
  7513                           indf0	equ	0xFEF
  7514                           postinc0	equ	0xFEE
  7515                           fsr0h	equ	0xFEA
  7516                           fsr0l	equ	0xFE9
  7517                           wreg	equ	0xFE8
  7518                           indf1	equ	0xFE7
  7519                           postinc1	equ	0xFE6
  7520                           postdec1	equ	0xFE5
  7521                           plusw1	equ	0xFE3
  7522                           fsr1h	equ	0xFE2
  7523                           fsr1l	equ	0xFE1
  7524                           indf2	equ	0xFDF
  7525                           postinc2	equ	0xFDE
  7526                           plusw2	equ	0xFDB
  7527                           fsr2h	equ	0xFDA
  7528                           fsr2l	equ	0xFD9
  7529                           status	equ	0xFD8


Data Sizes:
    Strings     385
    Constant    0
    Data        128
    BSS         22
    Persistent  2
    Stack       0

Auto Spaces:
    Space          Size  Autos    Used
    COMRAM           94     46      63
    BANK0           160     73     128
    BANK1           256     46     126
    BANK2           256      0       0
    BANK3           256      0       0
    BANK4           256      0       0
    BANK5           239      0       0

Pointer List with Targets:

    start_routine@error_msg	PTR unsigned char  size(2) Largest target is 17
		 -> STR_23(CODE[17]), STR_22(CODE[17]), 

    latch_keypad@x	PTR unsigned char  size(2) Largest target is 1
		 -> start_routine@x_900(BANK0[1]), start_routine@x(BANK0[1]), main@x(BANK1[1]), 

    Lcd_Write_String@a	PTR unsigned char  size(2) Largest target is 1535
		 -> STR_30(CODE[17]), STR_29(CODE[17]), STR_28(CODE[16]), STR_27(CODE[17]), 
		 -> STR_26(CODE[17]), STR_25(CODE[17]), STR_24(CODE[17]), STR_23(CODE[17]), 
		 -> STR_22(CODE[17]), STR_21(CODE[17]), STR_20(CODE[2]), STR_19(CODE[5]), 
		 -> STR_18(CODE[17]), STR_17(CODE[17]), STR_16(CODE[17]), STR_15(CODE[17]), 
		 -> STR_14(CODE[17]), STR_13(CODE[11]), STR_12(CODE[6]), STR_11(CODE[5]), 
		 -> STR_10(CODE[17]), STR_9(CODE[17]), STR_8(CODE[17]), STR_7(CODE[17]), 
		 -> STR_6(CODE[17]), STR_5(CODE[17]), STR_4(CODE[17]), STR_3(CODE[17]), 
		 -> STR_2(CODE[17]), STR_1(CODE[2]), RAM(DATA[1535]), 


Critical Paths under _main in COMRAM

    _main->_start_routine
    _start_routine->_menu_progress_bar
    _menu_progress_bar->___wmul
    ___wmul->___lwdiv
    _Lcd_Write_String->_Lcd_Write_Char
    _Lcd_Write_Char->_Lcd_Port
    _Lcd_Set_Cursor->_Lcd_Cmd
    _Lcd_Clear->_Lcd_Cmd
    _mcu_initialise->_Eeprom_Read_Byte
    _Lcd_Init->_Lcd_Cmd
    _Lcd_Cmd->_Lcd_Port

Critical Paths under _ISR in COMRAM

    _ISR->_load_reg_map

Critical Paths under _main in BANK0

    _main->_start_routine
    _start_routine->_menu_progress_bar

Critical Paths under _ISR in BANK0

    None.

Critical Paths under _main in BANK1

    None.

Critical Paths under _ISR in BANK1

    None.

Critical Paths under _main in BANK2

    None.

Critical Paths under _ISR in BANK2

    None.

Critical Paths under _main in BANK3

    None.

Critical Paths under _ISR in BANK3

    None.

Critical Paths under _main in BANK4

    None.

Critical Paths under _ISR in BANK4

    None.

Critical Paths under _main in BANK5

    None.

Critical Paths under _ISR in BANK5

    None.

Call Graph Tables:

 ---------------------------------------------------------------------------------
 (Depth) Function   	        Calls       Base Space   Used Autos Params    Refs
 ---------------------------------------------------------------------------------
 (0) _main                                                55    55      0   51060
                                             64 BANK0      9     9      0
                                              0 BANK1     46    46      0
                          _Lcd_Clear
                           _Lcd_Init
                     _Lcd_Set_Cursor
                     _Lcd_Write_Char
                   _Lcd_Write_String
                            ___awdiv
                       _latch_keypad
                     _mcu_initialise
                  _menu_progress_bar
                        _read_keypad
                      _start_routine
 ---------------------------------------------------------------------------------
 (1) _start_routine                                       54    54      0   25394
                                             42 COMRAM     4     4      0
                                             14 BANK0     50    50      0
                  _Eeprom_Write_Byte
                          _Lcd_Clear
                     _Lcd_Set_Cursor
                     _Lcd_Write_Char
                   _Lcd_Write_String
                            ___awdiv
                       _latch_keypad
                  _menu_progress_bar
                        _read_keypad
 ---------------------------------------------------------------------------------
 (2) _menu_progress_bar                                   20    18      2   11271
                                             36 COMRAM     6     4      2
                                              0 BANK0     14    14      0
                          _Lcd_Clear
                     _Lcd_Set_Cursor
                     _Lcd_Write_Char
                   _Lcd_Write_String
                            ___lwdiv
                             ___wmul
 ---------------------------------------------------------------------------------
 (3) ___wmul                                               6     2      4     848
                                             30 COMRAM     6     2      4
                            ___lwdiv (ARG)
 ---------------------------------------------------------------------------------
 (3) ___lwdiv                                              7     3      4    1781
                                             23 COMRAM     7     3      4
 ---------------------------------------------------------------------------------
 (3) _Lcd_Write_String                                     6     4      2    2694
                                             27 COMRAM     6     4      2
                     _Lcd_Write_Char
 ---------------------------------------------------------------------------------
 (4) _Lcd_Write_Char                                       3     3      0     254
                                             24 COMRAM     3     3      0
                           _Lcd_Port
 ---------------------------------------------------------------------------------
 (3) _Lcd_Set_Cursor                                       5     4      1    4780
                                             25 COMRAM     5     4      1
                            _Lcd_Cmd
 ---------------------------------------------------------------------------------
 (3) _Lcd_Clear                                            1     1      0     155
                                             25 COMRAM     1     1      0
                            _Lcd_Cmd
 ---------------------------------------------------------------------------------
 (2) _latch_keypad                                         4     2      2     755
                                             23 COMRAM     4     2      2
                        _read_keypad
 ---------------------------------------------------------------------------------
 (2) _read_keypad                                          0     0      0       0
 ---------------------------------------------------------------------------------
 (2) ___awdiv                                              8     4      4    1985
                                             23 COMRAM     8     4      4
 ---------------------------------------------------------------------------------
 (2) _Eeprom_Write_Byte                                    2     1      1     139
                                             23 COMRAM     2     1      1
 ---------------------------------------------------------------------------------
 (1) _mcu_initialise                                       0     0      0      31
                   _Eeprom_Read_Byte
 ---------------------------------------------------------------------------------
 (2) _Eeprom_Read_Byte                                     1     1      0      31
                                             23 COMRAM     1     1      0
 ---------------------------------------------------------------------------------
 (1) _Lcd_Init                                             1     1      0     279
                                             25 COMRAM     1     1      0
                            _Lcd_Cmd
                           _Lcd_Port
 ---------------------------------------------------------------------------------
 (4) _Lcd_Cmd                                              1     1      0     155
                                             24 COMRAM     1     1      0
                           _Lcd_Port
 ---------------------------------------------------------------------------------
 (5) _Lcd_Port                                             1     1      0     124
                                             23 COMRAM     1     1      0
 ---------------------------------------------------------------------------------
 Estimated maximum stack depth 5
 ---------------------------------------------------------------------------------
 (Depth) Function   	        Calls       Base Space   Used Autos Params    Refs
 ---------------------------------------------------------------------------------
 (6) _ISR                                                 15    15      0     226
                                              8 COMRAM    15    15      0
                       _load_reg_map
 ---------------------------------------------------------------------------------
 (7) _load_reg_map                                         8     8      0     180
                                              0 COMRAM     8     8      0
 ---------------------------------------------------------------------------------
 Estimated maximum stack depth 7
 ---------------------------------------------------------------------------------

 Call Graph Graphs:

 _main (ROOT)
   _Lcd_Clear
     _Lcd_Cmd
       _Lcd_Port
   _Lcd_Init
     _Lcd_Cmd
       _Lcd_Port
     _Lcd_Port
   _Lcd_Set_Cursor
     _Lcd_Cmd
       _Lcd_Port
   _Lcd_Write_Char
     _Lcd_Port
   _Lcd_Write_String
     _Lcd_Write_Char
       _Lcd_Port
   ___awdiv
   _latch_keypad
     _read_keypad
   _mcu_initialise
     _Eeprom_Read_Byte
   _menu_progress_bar
     _Lcd_Clear
       _Lcd_Cmd
         _Lcd_Port
     _Lcd_Set_Cursor
       _Lcd_Cmd
         _Lcd_Port
     _Lcd_Write_Char
       _Lcd_Port
     _Lcd_Write_String
       _Lcd_Write_Char
         _Lcd_Port
     ___lwdiv
     ___wmul
       ___lwdiv (ARG)
   _read_keypad
   _start_routine
     _Eeprom_Write_Byte
     _Lcd_Clear
       _Lcd_Cmd
         _Lcd_Port
     _Lcd_Set_Cursor
       _Lcd_Cmd
         _Lcd_Port
     _Lcd_Write_Char
       _Lcd_Port
     _Lcd_Write_String
       _Lcd_Write_Char
         _Lcd_Port
     ___awdiv
     _latch_keypad
       _read_keypad
     _menu_progress_bar
       _Lcd_Clear
         _Lcd_Cmd
           _Lcd_Port
       _Lcd_Set_Cursor
         _Lcd_Cmd
           _Lcd_Port
       _Lcd_Write_Char
         _Lcd_Port
       _Lcd_Write_String
         _Lcd_Write_Char
           _Lcd_Port
       ___lwdiv
       ___wmul
         ___lwdiv (ARG)
     _read_keypad

 _ISR (ROOT)
   _load_reg_map

 Address spaces:
Name               Size   Autos  Total    Cost      Usage
BIGRAM             5EE      0       0      16        0.0%
EEDATA             100      0       0       0        0.0%
BITBANK4           100      0       0      11        0.0%
BANK4              100      0       0      12        0.0%
BITBANK3           100      0       0       9        0.0%
BANK3              100      0       0      10        0.0%
BITBANK2           100      0       0       7        0.0%
BANK2              100      0       0       8        0.0%
BITBANK1           100      0       0       5        0.0%
BANK1              100     2E      7E       6       49.2%
BITBANK5            EF      0       0      15        0.0%
BANK5               EF      0       0      13        0.0%
BITBANK0            A0      0       0       3        0.0%
BANK0               A0     49      80       4       80.0%
BITCOMRAM           5E      0       0       0        0.0%
COMRAM              5E     2E      3F       1       67.0%
BITSFR_5             0      0       0      40        0.0%
SFR_5                0      0       0      40        0.0%
BITSFR_4             0      0       0      40        0.0%
SFR_4                0      0       0      40        0.0%
BITSFR_3             0      0       0      40        0.0%
SFR_3                0      0       0      40        0.0%
BITSFR_2             0      0       0      40        0.0%
SFR_2                0      0       0      40        0.0%
BITSFR_1             0      0       0      40        0.0%
SFR_1                0      0       0      40        0.0%
BITSFR               0      0       0      40        0.0%
SFR                  0      0       0      40        0.0%
STACK                0      0       0       2        0.0%
NULL                 0      0       0       0        0.0%
ABS                  0      0     13D      14        0.0%
DATA                 0      0     13D      17        0.0%
CODE                 0      0       0       0        0.0%


Microchip Technology PIC18 Macro Assembler V1.37 build -260352376 
Symbol Table                                                                                   Sat Aug 20 13:57:50 2016

                            _c 00A9                 start_routine@a 0097                 start_routine@b 008C  
               start_routine@h 0073                 start_routine@i 007E                 start_routine@k 007C  
               start_routine@l 0074                 start_routine@n 009E                 start_routine@v 007D  
               start_routine@x 009D                    _SSPSTATbits 000FC7                             l71 1C48  
                           l73 1C52                             l75 1C5C                             l69 1C3E  
                 ___awdiv@sign 001D                             _hx 0140                start_routine@d1 007B  
          ___wmul@multiplicand 0021                start_routine@dh 009B                start_routine@dt 0098  
                 __CFG_CP0$OFF 000000                   __CFG_CP1$OFF 000000                   __CFG_CP2$OFF 000000  
       __size_of_start_routine 0A0C                   __CFG_CP3$OFF 000000                    __CFG_LVP$ON 000000  
                          l153 1CA0                            l147 1D10                            l252 1760  
                          l261 17C8                            l262 17D4                            l254 176C  
                          l326 11D8                            l263 17E0                            l255 1778  
                          l257 1794                            l258 17A0                            l259 17AC  
                          l762 1ACA                   __CFG_CPB$OFF 000000                   __CFG_CPD$OFF 000000  
                          _ISR 0008                   __CFG_BORV$30 000000                            prod 000FF3  
                          wreg 000FE8        Eeprom_Read_Byte@address 0018                           ?_ISR 0001  
                         l4011 1038                           l4101 12C6                           l4005 1020  
                         l4111 12F8                           l4031 1102                           l4201 1556  
                         l4105 12DC                           l4041 1136                           l4113 1304  
                         l4035 1118                           l4115 130E                           l4205 156C  
                         l4117 1316                           l4213 1598                           l4301 0128  
                         l4303 0132                           l3513 1A4E                           l4209 1586  
                         l4073 1222                           l4057 11B2                           l4313 018C  
                         l4155 13F4                           l4091 128C                           l4083 1260  
                         l4307 0148                           l3453 1C54                           l3445 1C40  
                         l3509 1A1A                           l4181 14E8                           l4077 123C  
                         l4069 120C                           l4501 08F8                           l4413 0518  
                         l4325 01CA                           l3543 1784                           l3615 1A98  
                         l4167 1432                           l4095 12A2                           l4079 124C  
                         l3449 1C4A                           l3721 1BFE                           l3617 1AA0  
                         l3641 1618                           l4193 152A                           l4601 0B7E  
                         l4505 0900                           l3571 17B8                           l3723 1C10  
                         l3627 1AC0                           l3619 1AA4                           l4099 12BC  
                         l4515 093E                           l4523 0970                           l3741 18BA  
                         l3661 169C                           l3645 162A                           l3637 1602  
                         l4533 099A                           l4357 02BE                           l3751 18DC  
                         l3735 18AA                           l3655 167C                           l4199 154C  
                         l3903 0DD0                           l4551 09F2                           l4519 0954  
                         l4447 061E                           l4383 0392                           l4375 036A  
                         l3673 16E0                           l3665 16B2                           l3649 1646  
                         l3841 0BBA                           l4561 0A12                           l4545 09D2  
                         l4537 09B0                           l4481 07AE                           l4473 076A  
                         l4465 06C8                           l4377 0372                           l3747 18D0  
                         l3763 1902                           l3499 1B4C                           l3683 1704  
                         l4555 09FA                           l4491 083C                           l4467 06D0  
                         l4395 04A0                           l4387 03AA                           l4379 037C  
                         l3749 18D8                           l3693 173E                           l3685 170E  
                         l3677 16F6                           l3669 16CC                           l3925 0E3A  
                         l3861 0C2C                           l3845 0BD0                           l4557 0A06  
                         l4493 084C                           l4485 07C4                           l4469 06DC  
                         l4389 03B6                           l3767 1910                           l3759 18F8  
                         l3599 17EC                           l3935 0E78                           l4583 0AF4  
                         l3689 1724                           l3873 0C6C                           l3865 0C46  
                         l3857 0C16                           l3849 0BEA                           l4593 0B5A  
                         l4497 0862                           l4579 0ADE                           l3981 0F92  
                         l4597 0B76                           l3991 0FD6                           l3959 0F08  
                         l3895 0DA0                           l3985 0FA8                           l3977 0F7A  
                         l3979 0F82                           l3899 0DB6                           STR_2 7B7D  
                         STR_3 7BF4                           STR_4 7B8E                           STR_5 7C27  
                         STR_6 7B8E                           STR_7 7C9E                           STR_8 7BD2  
                         STR_9 7B7D                           _LATC 000F8B                           u3170 1A46  
                         u3180 1A7A                           u3177 1A3C                           u3187 1A70  
                         u3355 15C0                           u4261 052C                           u3800 11D8  
                         u4380 08A2                           u4390 08E8                           u4382 08A4  
                         u3911 138E                           u4607 11B8                           u4392 08EA  
                         u4617 1228                           u4707 1C04                           u4627 12A8  
                         u4717 19A4                           u4637 1572                           u4557 039A  
                         u4727 19BC                           u4647 1630                           u4567 095C  
                         u4737 19D4                           u4657 16B8                           u4577 0BD6  
                         u4747 1CFA                           u4667 172A                           u4587 0C32  
                         u4677 1BE0                           u4597 0DBC                           u4687 1BF2  
                         u4697 1CDE              ?_Lcd_Write_String 001C                           _main 0106  
                         fsr0h 000FEA                           fsr1h 000FE2                           indf0 000FEF  
                         fsr0l 000FE9                           fsr2h 000FDA                           indf1 000FE7  
                         fsr1l 000FE1                           indf2 000FDF                           fsr2l 000FD9  
                         btemp 0040                           pclat 000FFA                           prodh 000FF4  
                         prodl 000FF3                           start 0102             ??_Lcd_Write_String 001E  
                __CFG_IESO$OFF 000000                __end_of_Lcd_Cmd 1D04                  __CFG_MCLRE$ON 000000  
                 ___param_bank 000010                          ??_ISR 0009                          ?_main 0001  
              __end_of___awdiv 191A                          _EEADR 000FA9                          STR_10 7BC1  
                        STR_11 7CF2                          STR_20 7CFC                          STR_12 7CEC  
                        STR_13 7CE1                          STR_21 7C6B                          STR_30 7C7C  
                        STR_22 7C49                          STR_14 7C05                          STR_15 7C5A  
                        STR_23 7BE3                          STR_24 7CAF                          STR_16 7C16  
                        STR_25 7CC0                          STR_17 7C8D                          STR_18 7C16  
                        STR_26 7C38                          STR_19 7CF7                          STR_27 7B9F  
                        STR_28 7CD1                          STR_29 7BB0                ___awdiv@divisor 001A  
              __end_of___lwdiv 1AD4                          i2l290 00C6                          i2l277 1894  
              ___awdiv@counter 001C                          _PORTC 000F82                          _PORTD 000F83  
      __size_of_Lcd_Set_Cursor 0050                          _TRISA 000F92                          _TRISB 000F93  
                        _TRISC 000F94                          _TRISD 000F95                 _i2c_byte_count 003E  
                __CFG_PWRT$OFF 000000                  __CFG_WRT0$OFF 000000                  ?_latch_keypad 0018  
                __CFG_WRT1$OFF 000000                  __CFG_WRT2$OFF 000000                  __CFG_WRT3$OFF 000000  
               __CFG_EBTR0$OFF 000000                 __CFG_FCMEN$OFF 000000                 __CFG_EBTR1$OFF 000000  
                   _Machine_ID 00DF             start_routine@F3731 00BD             start_routine@F3716 00C6  
           start_routine@F3733 00C2                 __CFG_EBTR2$OFF 000000                 __CFG_EBTR3$OFF 000000  
                __CFG_WRTB$OFF 000000                  __CFG_WRTC$OFF 000000                  __CFG_WRTD$OFF 000000  
                 ?_read_keypad 0001                 __CFG_EBTRB$OFF 000000                          main@a 016B  
                        main@c 0150                          main@i 0172                          main@n 017C  
                        main@p 017B                          main@x 017D                          tablat 000FF5  
           start_routine@i_912 008A             start_routine@i_872 0082             start_routine@i_864 0080  
           start_routine@i_890 0084             start_routine@i_884 0099             start_routine@i_893 0086  
           start_routine@i_887 0090             start_routine@i_896 0088             start_routine@i_897 0092  
           start_routine@n_905 008F                  _start_routine 0B96                          plusw1 000FE3  
                        plusw2 000FDB             start_routine@x_900 009C                          status 000FD8  
menu_progress_bar@load_time_ms 0025                 __CFG_HFOFST$ON 000000               __end_of_Lcd_Init 1A10  
             __end_of_Lcd_Port 1C60                __initialization 191A                   __end_of_main 0B96  
                       ??_main 00A0             __size_of_Lcd_Clear 0020                  __activetblptr 000002  
         _credentials_accepted 00DD                 ??_latch_keypad 001A                  ?_load_reg_map 0001  
                       _EEDATA 000FA8                         _EECON2 000FA7               ___awdiv@dividend 0018  
               ?_start_routine 0001                         i2l3413 0074                 __CFG_WDTEN$OFF 000000  
                       i2l3431 00A8                         i2l3433 00BC                         i2l3427 009C  
                       i2l3435 00BE                         i2l2983 17F8                         i2l2993 1842  
                       i2l2995 184A                         i2l2987 1808                         i2l2999 185A  
                       _OSCCON 000FD3                      ??_Lcd_Cmd 0019        __size_of_Lcd_Write_Char 0038  
                       _SSPADD 000FC8                         _SSPBUF 000FC9                 __CFG_XINST$OFF 000000  
                       ___wmul 1C60                      ??___awdiv 001C                 __CFG_STVREN$ON 000000  
                    ??___lwdiv 001C              ?_Eeprom_Read_Byte 0001                         clear_0 1920  
             ___awdiv@quotient 001E             ??_Eeprom_Read_Byte 0018                   __pdataCOMRAM 002F  
                 __mediumconst 7B7C                         tblptrh 000FF7                         tblptrl 000FF6  
                       tblptru 000FF8                 ??_load_reg_map 0001                Lcd_Set_Cursor@a 001B  
              Lcd_Set_Cursor@b 001A                Lcd_Set_Cursor@y 001D                Lcd_Set_Cursor@z 001C  
                   __accesstop 0060        __end_of__initialization 198A                __CFG_PBADEN$OFF 000000  
            __end_of_Lcd_Clear 1CEC                  ___rparam_used 000001              _menu_progress_bar 15A2  
               __pcstackCOMRAM 0001                   __pidataBANK0 1CAA                   __pidataBANK1 1AD4  
           ?_menu_progress_bar 0025                 _Lcd_Set_Cursor 1B24            ??_menu_progress_bar 0027  
                 _EEP_I2C_ADDR 00DC                      ?_Lcd_Init 0001                      ?_Lcd_Port 0001  
            load_reg_map@i_829 0007                ??_start_routine 002B           __size_of_read_keypad 00AC  
                   __pbssBANK0 00CA      __end_of_menu_progress_bar 1744                      ISR@sspBuf 0017  
         __end_of_latch_keypad 1C34                        ?___wmul 001F   start_routine@new_I2C_address 009F  
    __size_of_Lcd_Write_String 0072         __end_of_Lcd_Set_Cursor 1B74         menu_progress_bar@i_720 006A  
       menu_progress_bar@i_721 006C         menu_progress_bar@i_719 0068                     ??_Lcd_Init 001A  
                   ??_Lcd_Port 0018                        _SSPCON1 000FC6                        _SSPCON2 000FC5  
      __size_of_mcu_initialise 0050                        _SSPSTAT 000FC7                 _Lcd_Write_Char 1BC4  
                      _Lcd_Cmd 1CEC                        __Hparam 0000                        __Lparam 0000  
         __end_of_load_reg_map 1896                        ___awdiv 1896                __size_of___wmul 0026  
                      ___lwdiv 1A82                        __pcinit 191A                        __ramtop 0600  
              ?_Lcd_Set_Cursor 001A                        __ptext0 0106                        __ptext1 0B96  
                      __ptext2 15A2                        __ptext3 1C60                        __ptext4 1A82  
                      __ptext5 1A10                        __ptext6 1BC4                        __ptext7 1B24  
                      __ptext8 1CCC                        __ptext9 1BFC            menu_progress_bar@ii 0064  
                 __size_of_ISR 00FA                        main@n_c 0165         __end_of_Lcd_Write_Char 1BFC  
         end_of_initialization 198A                  __Lmediumconst 7B7C     __size_of_menu_progress_bar 01A2  
                      postdec1 000FE5                        postinc0 000FEE                        postinc1 000FE6  
                      postinc2 000FDE                      Lcd_Port@a 0018                      _PORTBbits 000F81  
                    _PORTDbits 000F83                ?_Lcd_Write_Char 0001      __size_of_Eeprom_Read_Byte 0014  
            Lcd_Write_String@a 001C              Lcd_Write_String@i 0020          __size_of_latch_keypad 0038  
                   main@digits 017A                     main@buffer 015A                   _i2c_reg_addr 003F  
                latch_keypad@x 0018                      _Lcd_Clear 1CCC                 __end_of___wmul 1C86  
             _Lcd_Write_String 1A10                  __pidataCOMRAM 1D18              _Eeprom_Write_Byte 1C86  
           ?_Eeprom_Write_Byte 0018            start_initialization 191A                   _latch_keypad 1BFC  
                  __end_of_ISR 0102                      _i2c_r_reg 0100                      _i2c_w_reg 0120  
               _mcu_initialise 1B74            ??_Eeprom_Write_Byte 0019              __size_of_Lcd_Init 0078  
            __size_of_Lcd_Port 002C          __size_of_load_reg_map 00A6                     ?_Lcd_Clear 0001  
                     ??___wmul 0023                    __pdataBANK0 00A9                    __pdataBANK1 0100  
             __CFG_LPT1OSC$OFF 000000      __end_of_Eeprom_Write_Byte 1CAA                Lcd_Write_Char@a 001B  
              Lcd_Write_Char@y 001A      menu_seconds_to_mmss@F3627 002F                    __pbssCOMRAM 003E  
       __end_of_mcu_initialise 1BC4                  __pcstackBANK0 0060                  __pcstackBANK1 0150  
                ??_read_keypad 0018                   _load_reg_map 17F0          __end_of_start_routine 15A2  
                     ?_Lcd_Cmd 0001                      __pnvBANK0 00DE                   _current_user 00D3  
             ___lwdiv@dividend 0018              __CFG_CCP2MX$PORTC 000000               ??_Lcd_Set_Cursor 001B  
                    __pintcode 0008                  __pmediumconst 7B7C                       ?___awdiv 0018  
                     ?___lwdiv 0018                       _I2C_ADDR 00DE                ?_mcu_initialise 0001  
             ___lwdiv@quotient 001D               _Eeprom_Read_Byte 1D04             menu_progress_bar@d 0060  
           menu_progress_bar@i 0066            __end_of_read_keypad 17F0                 ___wmul@product 0023  
                     _LATDbits 000F8C                       _PIE1bits 000F9D                       Lcd_Cmd@a 0019  
                     _PIR1bits 000F9E                       _PIR2bits 000FA1                    ??_Lcd_Clear 001A  
             __CFG_WDTPS$32768 000000                      main@F3690 00C9                      main@F3678 00B3  
   __size_of_Eeprom_Write_Byte 0024                      main@i_780 0170                      main@i_772 016C  
                    main@i_773 0174                      main@i_765 0166                      main@i_781 0163  
                    main@i_774 0176                      main@i_766 016E                      main@i_785 0178  
                    main@i_777 0168              ___wmul@multiplier 001F               ??_Lcd_Write_Char 0019  
                     _Lcd_Init 1998                       _Lcd_Port 1C34                      copy_data0 193E  
                    copy_data1 195E                      copy_data2 197E       __end_of_Lcd_Write_String 1A82  
             __size_of_Lcd_Cmd 0018                     _EECON1bits 000FA6                       __Hrparam 0000  
                     __Lrparam 0000             __CFG_BOREN$SBORDIS 000000               __size_of___awdiv 0084  
             __size_of___lwdiv 0052      start_routine@I2C_new_ADDR 0094                    _current_pin 00CA  
                load_reg_map@i 0005                ___lwdiv@divisor 001A                ___lwdiv@counter 001C  
                  _read_keypad 1744                       __ptext10 1744                       __ptext11 1896  
                     __ptext12 1C86                       __ptext13 1B74                       __ptext14 1D04  
                     __ptext15 1998                       __ptext16 1CEC                       __ptext17 1C34  
                     __ptext19 17F0                  __size_of_main 0A90          Eeprom_Write_Byte@data 0018  
     Eeprom_Write_Byte@address 0019                       int$flags 0040            main@is_leading_zero 016A  
                  _OSCTUNEbits 000F9B                     _INTCONbits 000FF2             Lcd_Write_Char@temp 0019  
                     intlevel2 0000       __end_of_Eeprom_Read_Byte 1D18             Lcd_Set_Cursor@temp 001E  
             ??_mcu_initialise 0019        start_routine@r_password 006E                 menu_main@F3618 0039  
       start_routine@error_msg 0079                    _SSPCON1bits 000FC6              __CFG_FOSC$INTIO67 000000  
        start_routine@password 0075  
